(dp0
(S'RUS120523'
p1
S'PMd'
p2
I117
(I6
I-1000
I0
tp3
tp4
(Ntp5
s(g1
S'PMv'
p6
I64
g3
tp7
(Ntp8
s(S'SPK120918'
p9
g2
I64
g3
tp10
(Ntp11
s(S'RUS120521'
p12
g6
I58
(I8
I-1000
I0
tp13
tp14
(Ntp15
s(g9
g6
I120
g3
tp16
(Ntp17
s(S'RUS120518'
p18
g2
I10
g13
tp19
(Ntp20
s(S'SPK120925'
p21
g2
I77
g13
tp22
(Ntp23
s(S'SPK120924'
p24
S'M1'
p25
I116
g3
tp26
(Ntp27
s(g21
g2
I57
g3
tp28
(Ntp29
s(g9
g6
I84
g3
tp30
(Ntp31
s(g18
g25
I112
g3
tp32
(Ntp33
s(g1
g6
I145
g3
tp34
(Ntp35
s(g1
g6
I152
g13
tp36
(Ntp37
s(g24
g6
I161
g13
tp38
(Ntp39
s(g21
g25
I26
g3
tp40
(Ntp41
s(g21
g25
I2
g13
tp42
(Ntp43
s(g24
g25
I34
g3
tp44
(Ntp45
s(g1
g6
I61
g3
tp46
(Ntp47
s(g21
g6
I184
g13
tp48
(Ntp49
s(g12
g2
I33
g13
tp50
(Ntp51
s(g1
g2
I28
g3
tp52
(Ntp53
s(g24
g6
I169
g3
tp54
(Ntp55
s(g24
g25
I113
g13
tp56
(Ntp57
s(g18
g6
I194
g13
tp58
(Ntp59
s(g21
g25
I45
g3
tp60
(Ntp61
s(g9
g6
I214
g13
tp62
(Ntp63
s(g1
g25
I142
g3
tp64
(Ntp65
s(g9
g6
I218
g3
tp66
(Ntp67
s(g24
g25
I92
g13
tp68
(Ntp69
s(g12
g2
I58
g13
tp70
(Ntp71
s(g24
g6
I146
g3
tp72
(Ntp73
s(g24
g6
I6
g13
tp74
(Ntp75
s(g18
g6
I7
g3
tp76
(Ntp77
s(g18
g6
I124
g3
tp78
(Ntp79
s(g12
g6
I169
g13
tp80
(Ntp81
s(g1
g2
I59
g3
tp82
(Ntp83
s(g9
g6
I68
g13
tp84
(Ntp85
s(g1
g25
I129
g13
tp86
(Ntp87
s(g1
g25
I10
g13
tp88
(Ntp89
s(g1
g2
I102
g3
tp90
(Ntp91
s(g12
g25
I78
g3
tp92
(Ntp93
s(g12
g6
I81
g3
tp94
(Ntp95
s(g9
g6
I190
g3
tp96
(Ntp97
s(g21
g25
I71
g3
tp98
(Ntp99
s(g24
g6
I45
g13
tp100
(Ntp101
s(g18
g6
I180
g13
tp102
(Ntp103
s(g12
g25
I114
g3
tp104
(Ntp105
s(g9
g6
I113
g13
tp106
(Ntp107
s(g9
g6
I241
g3
tp108
(Ntp109
s(g24
g25
I75
g3
tp110
(Ntp111
s(g1
g2
I105
g3
tp112
(Ntp113
s(g1
g25
I19
g13
tp114
(Ntp115
s(g21
g25
I5
g13
tp116
(Ntp117
s(g21
g2
I104
g13
tp118
(Ntp119
s(g12
g6
I111
g3
tp120
(Ntp121
s(g9
g25
I19
g13
tp122
(Ntp123
s(g1
g6
I172
g3
tp124
(Ntp125
s(g21
g6
I217
g13
tp126
(Ntp127
s(g9
g25
I106
g3
tp128
(Ntp129
s(g1
g2
I30
g13
tp130
(Ntp131
s(g18
g6
I205
g13
tp132
(Ntp133
s(g9
g6
I90
g13
tp134
(Ntp135
s(g9
g6
I15
g3
tp136
(Ntp137
s(g9
g6
I228
g3
tp138
(Ntp139
s(g1
g2
I71
g3
tp140
(Ntp141
s(g18
g2
I14
g13
tp142
(Ntp143
s(g21
g2
I65
g13
tp144
(Ntp145
s(g18
g25
I84
g3
tp146
(Ntp147
s(g24
g25
I108
g3
tp148
(Ntp149
s(g9
g6
I7
g13
tp150
(Ntp151
s(g21
g6
I69
g3
tp152
(Ntp153
s(g1
g25
I5
g13
tp154
(Ntp155
s(g21
g2
I30
g3
tp156
(Ntp157
s(g12
g6
I87
g13
tp158
(Ntp159
s(g21
g25
I62
g3
tp160
(Ntp161
s(g9
g25
I13
g13
tp162
(Ntp163
s(g1
g2
I8
g13
tp164
(Ntp165
s(g24
g25
I62
g3
tp166
(Ntp167
s(g21
g6
I182
g13
tp168
(Ntp169
s(g18
g6
I42
g3
tp170
(Ntp171
s(g21
g25
I49
g3
tp172
(Ntp173
s(g24
g6
I227
g3
tp174
(Ntp175
s(g24
g6
I117
g3
tp176
(Ntp177
s(g18
g2
I63
g3
tp178
(Ntp179
s(g21
g6
I188
g13
tp180
(Ntp181
s(g18
g6
I113
g3
tp182
(Ntp183
s(g24
g6
I112
g13
tp184
(Ntp185
s(g1
g2
I17
g13
tp186
(Ntp187
s(g1
g6
I195
g3
tp188
(Ntp189
s(g24
g25
I117
g13
tp190
(Ntp191
s(g24
g2
I126
g3
tp192
(Ntp193
s(g9
g2
I78
g3
tp194
(Ntp195
s(g9
g2
I56
g3
tp196
(Ntp197
s(g18
g6
I198
g13
tp198
(Ntp199
s(g24
g2
I87
g3
tp200
(Ntp201
s(g24
g6
I17
g3
tp202
(Ntp203
s(g12
g25
I100
g13
tp204
(Ntp205
s(g12
g2
I62
g13
tp206
(Ntp207
s(g21
g2
I67
g3
tp208
(Ntp209
s(g12
g6
I61
g3
tp210
(Ntp211
s(g21
g25
I107
g3
tp212
(Ntp213
s(g24
g2
I107
g3
tp214
(Ntp215
s(g9
g6
I72
g13
tp216
(Ntp217
s(g1
g25
I14
g13
tp218
(Ntp219
s(g21
g25
I40
g13
tp220
(Ntp221
s(g1
g6
I169
g3
tp222
(Ntp223
s(g24
g6
I213
g13
tp224
(Ntp225
s(g24
g25
I75
g13
tp226
(Ntp227
s(g18
g6
I168
g13
tp228
(Ntp229
s(g24
g6
I62
g3
tp230
(Ntp231
s(g9
g6
I117
g13
tp232
(Ntp233
s(g24
g6
I123
g3
tp234
(Ntp235
s(g21
g6
I40
g3
tp236
(Ntp237
s(g1
g25
I23
g13
tp238
(Ntp239
s(g21
g25
I1
g13
tp240
(Ntp241
s(g1
g6
I213
g3
tp242
(Ntp243
s(g21
g2
I108
g13
tp244
(Ntp245
s(g24
g6
I103
g13
tp246
(Ntp247
s(g18
g6
I133
g13
tp248
(Ntp249
s(g9
g25
I31
g13
tp250
(Ntp251
s(g12
g6
I8
g13
tp252
(Ntp253
s(g1
g2
I26
g13
tp254
(Ntp255
s(g18
g6
I193
g13
tp256
(Ntp257
s(g9
g6
I94
g13
tp258
(Ntp259
s(g24
g2
I88
g13
tp260
(Ntp261
s(g21
g2
I58
g3
tp262
(Ntp263
s(g21
g2
I69
g13
tp264
(Ntp265
s(g18
g6
I23
g13
tp266
(Ntp267
s(g24
g6
I183
g3
tp268
(Ntp269
s(g12
g6
I174
g13
tp270
(Ntp271
s(g9
g6
I11
g13
tp272
(Ntp273
s(g1
g2
I35
g13
tp274
(Ntp275
s(g1
g6
I10
g3
tp276
(Ntp277
s(g1
g25
I9
g13
tp278
(Ntp279
s(g1
g25
I114
g13
tp280
(Ntp281
s(g12
g25
I52
g3
tp282
(Ntp283
s(g12
g25
I64
g3
tp284
(Ntp285
s(g24
g6
I10
g3
tp286
(Ntp287
s(g12
g6
I43
g13
tp288
(Ntp289
s(g9
g6
I66
g3
tp290
(Ntp291
s(g9
g25
I9
g13
tp292
(Ntp293
s(g1
g25
I121
g3
tp294
(Ntp295
s(g24
g6
I184
g3
tp296
(Ntp297
s(g12
g2
I80
g3
tp298
(Ntp299
s(g21
g6
I68
g3
tp300
(Ntp301
s(g24
g25
I33
g3
tp302
(Ntp303
s(g21
g25
I89
g13
tp304
(Ntp305
s(g1
g2
I95
g3
tp306
(Ntp307
s(g24
g2
I82
g3
tp308
(Ntp309
s(g18
g25
I40
g3
tp310
(Ntp311
s(g9
g25
I66
g3
tp312
(Ntp313
s(g1
g2
I29
g13
tp314
(Ntp315
s(g21
g6
I199
g13
tp316
(Ntp317
s(g24
g25
I121
g13
tp318
(Ntp319
s(g9
g6
I103
g3
tp320
(Ntp321
s(g24
g6
I2
g3
tp322
(Ntp323
s(g21
g6
I145
g13
tp324
(Ntp325
s(g9
g25
I117
g3
tp326
(Ntp327
s(g24
g6
I14
g13
tp328
(Ntp329
s(g18
g6
I211
g13
tp330
(Ntp331
s(g9
g6
I76
g13
tp332
(Ntp333
s(g24
g6
I209
g13
tp334
(Ntp335
s(g24
g25
I8
g3
tp336
(Ntp337
s(g24
g25
I79
g13
tp338
(Ntp339
s(g18
g6
I172
g13
tp340
(Ntp341
s(g9
g2
I82
g13
tp342
(Ntp343
s(g9
g6
I121
g13
tp344
(Ntp345
s(g12
g6
I96
g3
tp346
(Ntp347
s(g9
g2
I101
g13
tp348
(Ntp349
s(g9
g25
I31
g3
tp350
(Ntp351
s(g9
g2
I74
g3
tp352
(Ntp353
s(g1
g25
I27
g13
tp354
(Ntp355
s(g21
g25
I29
g13
tp356
(Ntp357
s(g21
g6
I202
g3
tp358
(Ntp359
s(g18
g6
I185
g3
tp360
(Ntp361
s(g24
g6
I99
g13
tp362
(Ntp363
s(g9
g6
I128
g3
tp364
(Ntp365
s(g9
g2
I38
g3
tp366
(Ntp367
s(g18
g6
I86
g3
tp368
(Ntp369
s(g21
g25
I75
g13
tp370
(Ntp371
s(g21
g2
I66
g3
tp372
(Ntp373
s(g24
g2
I106
g13
tp374
(Ntp375
s(g24
g2
I111
g3
tp376
(Ntp377
s(g1
g2
I35
g3
tp378
(Ntp379
s(g1
g2
I72
g3
tp380
(Ntp381
s(g12
g6
I11
g3
tp382
(Ntp383
s(g18
g6
I11
g13
tp384
(Ntp385
s(g9
g6
I210
g3
tp386
(Ntp387
s(g9
g6
I15
g13
tp388
(Ntp389
s(g9
g2
I20
g3
tp390
(Ntp391
s(g1
g2
I47
g13
tp392
(Ntp393
s(g12
g6
I199
g13
tp394
(Ntp395
s(g12
g25
I72
g3
tp396
(Ntp397
s(g21
g6
I96
g3
tp398
(Ntp399
s(g1
g25
I13
g13
tp400
(Ntp401
s(g1
g25
I118
g13
tp402
(Ntp403
s(g21
g2
I38
g3
tp404
(Ntp405
s(g1
g2
I51
g3
tp406
(Ntp407
s(g12
g6
I47
g13
tp408
(Ntp409
s(g24
g6
I93
g13
tp410
(Ntp411
s(g9
g25
I53
g13
tp412
(Ntp413
s(g12
g6
I89
g3
tp414
(Ntp415
s(g18
g6
I32
g13
tp416
(Ntp417
s(g1
g6
I146
g3
tp418
(Ntp419
s(g9
g25
I102
g3
tp420
(Ntp421
s(g21
g6
I174
g13
tp422
(Ntp423
s(g21
g25
I85
g13
tp424
(Ntp425
s(g24
g6
I32
g13
tp426
(Ntp427
s(g18
g6
I42
g13
tp428
(Ntp429
s(g1
g2
I25
g13
tp430
(Ntp431
s(g24
g25
I90
g3
tp432
(Ntp433
s(g9
g25
I105
g3
tp434
(Ntp435
s(g24
g2
I86
g3
tp436
(Ntp437
s(g1
g25
I104
g13
tp438
(Ntp439
s(g18
g6
I96
g3
tp440
(Ntp441
s(g21
g2
I45
g3
tp442
(Ntp443
s(g1
g25
I53
g13
tp444
(Ntp445
s(g1
g25
I120
g3
tp446
(Ntp447
s(g9
g25
I51
g3
tp448
(Ntp449
s(g24
g6
I95
g3
tp450
(Ntp451
s(g1
g6
I167
g13
tp452
(Ntp453
s(g1
g6
I41
g3
tp454
(Ntp455
s(g9
g2
I86
g13
tp456
(Ntp457
s(g9
g2
I125
g3
tp458
(Ntp459
s(g9
g2
I66
g3
tp460
(Ntp461
s(g9
g2
I105
g13
tp462
(Ntp463
s(g9
g6
I21
g3
tp464
(Ntp465
s(g21
g6
I40
g13
tp466
(Ntp467
s(g24
g25
I5
g13
tp468
(Ntp469
s(g24
g6
I111
g13
tp470
(Ntp471
s(g21
g6
I127
g13
tp472
(Ntp473
s(g18
g6
I94
g3
tp474
(Ntp475
s(g21
g2
I9
g13
tp476
(Ntp477
s(g12
g6
I23
g3
tp478
(Ntp479
s(g21
g2
I59
g3
tp480
(Ntp481
s(g21
g25
I71
g13
tp482
(Ntp483
s(g9
g6
I225
g3
tp484
(Ntp485
s(g24
g6
I50
g13
tp486
(Ntp487
s(g9
g6
I8
g3
tp488
(Ntp489
s(g1
g6
I159
g3
tp490
(Ntp491
s(g1
g25
I35
g3
tp492
(Ntp493
s(g24
g25
I44
g13
tp494
(Ntp495
s(g24
g6
I118
g13
tp496
(Ntp497
s(g12
g25
I53
g3
tp498
(Ntp499
s(g18
g6
I15
g13
tp500
(Ntp501
s(g9
g6
I19
g13
tp502
(Ntp503
s(g9
g6
I67
g3
tp504
(Ntp505
s(g1
g25
I122
g13
tp506
(Ntp507
s(g24
g2
I115
g3
tp508
(Ntp509
s(g18
g6
I205
g3
tp510
(Ntp511
s(g1
g6
I118
g3
tp512
(Ntp513
s(g24
g6
I89
g13
tp514
(Ntp515
s(g24
g25
I32
g3
tp516
(Ntp517
s(g1
g6
I161
g3
tp518
(Ntp519
s(g24
g6
I182
g3
tp520
(Ntp521
s(g18
g6
I36
g13
tp522
(Ntp523
s(g21
g25
I44
g13
tp524
(Ntp525
s(g24
g25
I57
g3
tp526
(Ntp527
s(g21
g25
I81
g13
tp528
(Ntp529
s(g24
g2
I69
g13
tp530
(Ntp531
s(g21
g6
I196
g3
tp532
(Ntp533
s(g1
g2
I5
g13
tp534
(Ntp535
s(g1
g2
I12
g3
tp536
(Ntp537
s(g18
g2
I56
g3
tp538
(Ntp539
s(g24
g6
I153
g3
tp540
(Ntp541
s(g21
g6
I28
g3
tp542
(Ntp543
s(g1
g25
I108
g13
tp544
(Ntp545
s(g24
g2
I113
g3
tp546
(Ntp547
s(g9
g2
I123
g13
tp548
(Ntp549
s(g12
g25
I76
g3
tp550
(Ntp551
s(g9
g6
I231
g3
tp552
(Ntp553
s(g9
g6
I42
g3
tp554
(Ntp555
s(g24
g6
I130
g3
tp556
(Ntp557
s(g1
g25
I57
g13
tp558
(Ntp559
s(g21
g6
I77
g13
tp560
(Ntp561
s(g24
g6
I207
g3
tp562
(Ntp563
s(g21
g25
I104
g3
tp564
(Ntp565
s(g24
g25
I110
g13
tp566
(Ntp567
s(g18
g25
I97
g13
tp568
(Ntp569
s(g1
g2
I86
g3
tp570
(Ntp571
s(g18
g25
I59
g3
tp572
(Ntp573
s(g12
g6
I97
g3
tp574
(Ntp575
s(g1
g2
I120
g13
tp576
(Ntp577
s(g1
g6
I170
g3
tp578
(Ntp579
s(g9
g2
I90
g13
tp580
(Ntp581
s(g24
g25
I19
g13
tp582
(Ntp583
s(g24
g25
I86
g3
tp584
(Ntp585
s(g9
g2
I109
g13
tp586
(Ntp587
s(g9
g6
I129
g3
tp588
(Ntp589
s(g1
g2
I77
g13
tp590
(Ntp591
s(g1
g6
I100
g13
tp592
(Ntp593
s(g18
g2
I20
g3
tp594
(Ntp595
s(g24
g6
I107
g13
tp596
(Ntp597
s(g24
g2
I44
g3
tp598
(Ntp599
s(g24
g25
I99
g13
tp600
(Ntp601
s(g1
g6
I111
g3
tp602
(Ntp603
s(g12
g25
I25
g3
tp604
(Ntp605
s(g9
g6
I95
g3
tp606
(Ntp607
s(g24
g6
I62
g13
tp608
(Ntp609
s(g24
g25
I48
g13
tp610
(Ntp611
s(g24
g25
I60
g3
tp612
(Ntp613
s(g18
g6
I3
g13
tp614
(Ntp615
s(g12
g6
I90
g3
tp616
(Ntp617
s(g1
g25
I126
g13
tp618
(Ntp619
s(g24
g6
I69
g13
tp620
(Ntp621
s(g21
g6
I224
g3
tp622
(Ntp623
s(g12
g6
I99
g13
tp624
(Ntp625
s(g18
g6
I24
g13
tp626
(Ntp627
s(g1
g25
I75
g13
tp628
(Ntp629
s(g21
g25
I109
g13
tp630
(Ntp631
s(g18
g6
I69
g3
tp632
(Ntp633
s(g24
g6
I78
g13
tp634
(Ntp635
s(g24
g2
I65
g13
tp636
(Ntp637
s(g24
g6
I39
g13
tp638
(Ntp639
s(g24
g2
I85
g3
tp640
(Ntp641
s(g24
g25
I6
g13
tp642
(Ntp643
s(g21
g25
I28
g3
tp644
(Ntp645
s(g18
g6
I110
g13
tp646
(Ntp647
s(g18
g6
I97
g3
tp648
(Ntp649
s(g21
g6
I51
g3
tp650
(Ntp651
s(g9
g2
I62
g3
tp652
(Ntp653
s(g1
g25
I80
g13
tp654
(Ntp655
s(g21
g6
I190
g3
tp656
(Ntp657
s(g12
g6
I117
g13
tp658
(Ntp659
s(g24
g6
I1
g3
tp660
(Ntp661
s(g1
g2
I95
g13
tp662
(Ntp663
s(g12
g6
I51
g3
tp664
(Ntp665
s(g1
g25
I61
g13
tp666
(Ntp667
s(g21
g6
I65
g13
tp668
(Ntp669
s(g1
g6
I142
g3
tp670
(Ntp671
s(g24
g2
I16
g3
tp672
(Ntp673
s(g24
g2
I59
g3
tp674
(Ntp675
s(g24
g2
I95
g13
tp676
(Ntp677
s(g18
g25
I125
g13
tp678
(Ntp679
s(g9
g2
I68
g13
tp680
(Ntp681
s(g18
g6
I80
g13
tp682
(Ntp683
s(g1
g2
I100
g13
tp684
(Ntp685
s(g21
g6
I158
g13
tp686
(Ntp687
s(g24
g25
I23
g13
tp688
(Ntp689
s(g24
g6
I107
g3
tp690
(Ntp691
s(g1
g6
I208
g13
tp692
(Ntp693
s(g18
g25
I22
g13
tp694
(Ntp695
s(g1
g2
I73
g13
tp696
(Ntp697
s(g1
g6
I96
g13
tp698
(Ntp699
s(g21
g6
I119
g13
tp700
(Ntp701
s(g1
g25
I66
g3
tp702
(Ntp703
s(g18
g25
I75
g13
tp704
(Ntp705
s(g1
g6
I85
g13
tp706
(Ntp707
s(g21
g2
I21
g3
tp708
(Ntp709
s(g24
g25
I52
g13
tp710
(Ntp711
s(g24
g6
I186
g3
tp712
(Ntp713
s(g1
g2
I32
g3
tp714
(Ntp715
s(g12
g2
I86
g3
tp716
(Ntp717
s(g21
g2
I113
g3
tp718
(Ntp719
s(g9
g2
I12
g13
tp720
(Ntp721
s(g1
g25
I77
g3
tp722
(Ntp723
s(g9
g2
I108
g3
tp724
(Ntp725
s(g1
g6
I126
g13
tp726
(Ntp727
s(g18
g25
I129
g3
tp728
(Ntp729
s(g24
g25
I132
g3
tp730
(Ntp731
s(g9
g6
I195
g3
tp732
(Ntp733
s(g24
g6
I65
g13
tp734
(Ntp735
s(g21
g6
I59
g13
tp736
(Ntp737
s(g21
g2
I24
g3
tp738
(Ntp739
s(g21
g6
I18
g13
tp740
(Ntp741
s(g1
g25
I105
g3
tp742
(Ntp743
s(g12
g2
I77
g3
tp744
(Ntp745
s(g9
g6
I144
g13
tp746
(Ntp747
s(g12
g6
I70
g3
tp748
(Ntp749
s(g1
g6
I33
g3
tp750
(Ntp751
s(g24
g2
I45
g3
tp752
(Ntp753
s(g24
g6
I12
g3
tp754
(Ntp755
s(g24
g2
I77
g13
tp756
(Ntp757
s(g18
g6
I98
g13
tp758
(Ntp759
s(g1
g25
I84
g13
tp760
(Ntp761
s(g9
g6
I105
g3
tp762
(Ntp763
s(g12
g2
I27
g3
tp764
(Ntp765
s(g18
g6
I167
g3
tp766
(Ntp767
s(g12
g6
I73
g13
tp768
(Ntp769
s(g18
g25
I4
g13
tp770
(Ntp771
s(g18
g6
I123
g13
tp772
(Ntp773
s(g12
g25
I76
g13
tp774
(Ntp775
s(g1
g25
I33
g13
tp776
(Ntp777
s(g9
g6
I170
g3
tp778
(Ntp779
s(g18
g25
I121
g13
tp780
(Ntp781
s(g18
g6
I84
g13
tp782
(Ntp783
s(g9
g2
I37
g13
tp784
(Ntp785
s(g12
g25
I6
g3
tp786
(Ntp787
s(g9
g2
I53
g3
tp788
(Ntp789
s(g1
g2
I96
g13
tp790
(Ntp791
s(g9
g25
I48
g3
tp792
(Ntp793
s(g21
g6
I15
g3
tp794
(Ntp795
s(g12
g6
I112
g3
tp796
(Ntp797
s(g9
g2
I30
g13
tp798
(Ntp799
s(g18
g2
I72
g13
tp800
(Ntp801
s(g1
g6
I67
g3
tp802
(Ntp803
s(g9
g2
I122
g3
tp804
(Ntp805
s(g1
g2
I45
g3
tp806
(Ntp807
s(g18
g25
I18
g13
tp808
(Ntp809
s(g1
g2
I53
g13
tp810
(Ntp811
s(g1
g6
I108
g13
tp812
(Ntp813
s(g18
g6
I109
g13
tp814
(Ntp815
s(g21
g6
I107
g13
tp816
(Ntp817
s(g9
g6
I239
g3
tp818
(Ntp819
s(g9
g6
I208
g3
tp820
(Ntp821
s(g1
g2
I4
g3
tp822
(Ntp823
s(g21
g2
I95
g3
tp824
(Ntp825
s(g18
g25
I71
g13
tp826
(Ntp827
s(g1
g6
I81
g13
tp828
(Ntp829
s(g1
g2
I56
g3
tp830
(Ntp831
s(g24
g25
I107
g3
tp832
(Ntp833
s(g18
g25
I17
g3
tp834
(Ntp835
s(g12
g6
I91
g3
tp836
(Ntp837
s(g9
g6
I223
g3
tp838
(Ntp839
s(g1
g6
I144
g3
tp840
(Ntp841
s(g9
g2
I4
g3
tp842
(Ntp843
s(g9
g2
I48
g13
tp844
(Ntp845
s(g12
g25
I120
g3
tp846
(Ntp847
s(g21
g6
I225
g3
tp848
(Ntp849
s(g9
g6
I59
g3
tp850
(Ntp851
s(g1
g2
I110
g3
tp852
(Ntp853
s(g21
g6
I22
g13
tp854
(Ntp855
s(g18
g6
I202
g3
tp856
(Ntp857
s(g12
g6
I78
g3
tp858
(Ntp859
s(g9
g6
I148
g13
tp860
(Ntp861
s(g24
g2
I84
g3
tp862
(Ntp863
s(g12
g25
I111
g3
tp864
(Ntp865
s(g18
g25
I133
g3
tp866
(Ntp867
s(g1
g6
I52
g13
tp868
(Ntp869
s(g18
g6
I102
g13
tp870
(Ntp871
s(g24
g25
I106
g3
tp872
(Ntp873
s(g18
g6
I36
g3
tp874
(Ntp875
s(g1
g6
I30
g3
tp876
(Ntp877
s(g18
g6
I127
g13
tp878
(Ntp879
s(g9
g6
I170
g13
tp880
(Ntp881
s(g12
g25
I72
g13
tp882
(Ntp883
s(g9
g2
I127
g3
tp884
(Ntp885
s(g18
g6
I31
g3
tp886
(Ntp887
s(g12
g6
I138
g13
tp888
(Ntp889
s(g18
g25
I117
g13
tp890
(Ntp891
s(g24
g2
I27
g13
tp892
(Ntp893
s(g21
g2
I96
g3
tp894
(Ntp895
s(g18
g6
I72
g13
tp896
(Ntp897
s(g24
g6
I222
g3
tp898
(Ntp899
s(g1
g2
I1
g3
tp900
(Ntp901
s(g21
g25
I54
g3
tp902
(Ntp903
s(g18
g6
I59
g3
tp904
(Ntp905
s(g12
g25
I97
g13
tp906
(Ntp907
s(g18
g25
I60
g3
tp908
(Ntp909
s(g9
g6
I102
g3
tp910
(Ntp911
s(g1
g6
I196
g3
tp912
(Ntp913
s(g12
g25
I10
g3
tp914
(Ntp915
s(g18
g25
I110
g13
tp916
(Ntp917
s(g9
g6
I14
g3
tp918
(Ntp919
s(g18
g6
I97
g13
tp920
(Ntp921
s(g18
g6
I105
g3
tp922
(Ntp923
s(g24
g2
I56
g13
tp924
(Ntp925
s(g24
g25
I15
g3
tp926
(Ntp927
s(g1
g6
I96
g3
tp928
(Ntp929
s(g18
g25
I67
g13
tp930
(Ntp931
s(g12
g25
I26
g3
tp932
(Ntp933
s(g1
g6
I93
g13
tp934
(Ntp935
s(g18
g2
I101
g13
tp936
(Ntp937
s(g9
g6
I88
g3
tp938
(Ntp939
s(g24
g25
I20
g3
tp940
(Ntp941
s(g24
g25
I63
g3
tp942
(Ntp943
s(g21
g2
I25
g3
tp944
(Ntp945
s(g9
g2
I52
g13
tp946
(Ntp947
s(g18
g2
I82
g13
tp948
(Ntp949
s(g18
g25
I16
g3
tp950
(Ntp951
s(g21
g6
I10
g13
tp952
(Ntp953
s(g1
g6
I177
g3
tp954
(Ntp955
s(g18
g2
I5
g3
tp956
(Ntp957
s(g9
g6
I152
g13
tp958
(Ntp959
s(g18
g25
I38
g13
tp960
(Ntp961
s(g18
g6
I75
g13
tp962
(Ntp963
s(g1
g6
I48
g13
tp964
(Ntp965
s(g1
g25
I44
g3
tp966
(Ntp967
s(g24
g2
I9
g13
tp968
(Ntp969
s(g24
g6
I140
g3
tp970
(Ntp971
s(g1
g2
I10
g3
tp972
(Ntp973
s(g1
g2
I60
g3
tp974
(Ntp975
s(g24
g6
I201
g3
tp976
(Ntp977
s(g9
g6
I129
g13
tp978
(Ntp979
s(g1
g6
I217
g13
tp980
(Ntp981
s(g21
g25
I13
g3
tp982
(Ntp983
s(g12
g2
I21
g13
tp984
(Ntp985
s(g18
g6
I115
g13
tp986
(Ntp987
s(g9
g6
I174
g13
tp988
(Ntp989
s(g12
g25
I68
g13
tp990
(Ntp991
s(g24
g6
I178
g3
tp992
(Ntp993
s(g1
g6
I14
g13
tp994
(Ntp995
s(g9
g25
I84
g3
tp996
(Ntp997
s(g12
g2
I98
g13
tp998
(Ntp999
s(g12
g6
I142
g13
tp1000
(Ntp1001
s(g24
g6
I214
g3
tp1002
(Ntp1003
s(g24
g2
I103
g13
tp1004
(Ntp1005
s(g18
g6
I76
g13
tp1006
(Ntp1007
s(g12
g25
I110
g3
tp1008
(Ntp1009
s(g12
g6
I113
g3
tp1010
(Ntp1011
s(g9
g6
I151
g13
tp1012
(Ntp1013
s(g24
g2
I48
g3
tp1014
(Ntp1015
s(g18
g2
I64
g13
tp1016
(Ntp1017
s(g21
g2
I7
g13
tp1018
(Ntp1019
s(g1
g2
I5
g3
tp1020
(Ntp1021
s(g24
g6
I126
g3
tp1022
(Ntp1023
s(g21
g6
I143
g3
tp1024
(Ntp1025
s(g18
g6
I101
g13
tp1026
(Ntp1027
s(g1
g6
I115
g3
tp1028
(Ntp1029
s(g1
g25
I131
g3
tp1030
(Ntp1031
s(g9
g25
I74
g3
tp1032
(Ntp1033
s(g24
g2
I4
g13
tp1034
(Ntp1035
s(g12
g6
I144
g13
tp1036
(Ntp1037
s(g18
g25
I95
g13
tp1038
(Ntp1039
s(g18
g2
I9
g3
tp1040
(Ntp1041
s(g21
g2
I18
g3
tp1042
(Ntp1043
s(g9
g25
I90
g3
tp1044
(Ntp1045
s(g21
g6
I37
g3
tp1046
(Ntp1047
s(g18
g2
I86
g13
tp1048
(Ntp1049
s(g12
g6
I42
g3
tp1050
(Ntp1051
s(g21
g2
I126
g3
tp1052
(Ntp1053
s(g9
g2
I132
g3
tp1054
(Ntp1055
s(g21
g25
I30
g3
tp1056
(Ntp1057
s(g21
g6
I14
g13
tp1058
(Ntp1059
s(g9
g6
I149
g3
tp1060
(Ntp1061
s(g9
g6
I156
g13
tp1062
(Ntp1063
s(g18
g25
I34
g13
tp1064
(Ntp1065
s(g9
g2
I1
g13
tp1066
(Ntp1067
s(g1
g6
I60
g13
tp1068
(Ntp1069
s(g21
g6
I219
g3
tp1070
(Ntp1071
s(g21
g2
I76
g3
tp1072
(Ntp1073
s(g21
g6
I91
g13
tp1074
(Ntp1075
s(g24
g2
I122
g3
tp1076
(Ntp1077
s(g24
g6
I3
g3
tp1078
(Ntp1079
s(g9
g2
I30
g3
tp1080
(Ntp1081
s(g1
g25
I138
g3
tp1082
(Ntp1083
s(g24
g2
I30
g3
tp1084
(Ntp1085
s(g9
g2
I46
g3
tp1086
(Ntp1087
s(g1
g6
I37
g13
tp1088
(Ntp1089
s(g12
g2
I77
g13
tp1090
(Ntp1091
s(g24
g2
I119
g3
tp1092
(Ntp1093
s(g24
g6
I49
g3
tp1094
(Ntp1095
s(g12
g2
I36
g3
tp1096
(Ntp1097
s(g9
g6
I178
g13
tp1098
(Ntp1099
s(g18
g6
I164
g3
tp1100
(Ntp1101
s(g1
g6
I136
g3
tp1102
(Ntp1103
s(g12
g6
I130
g13
tp1104
(Ntp1105
s(g24
g6
I186
g13
tp1106
(Ntp1107
s(g24
g2
I99
g13
tp1108
(Ntp1109
s(g24
g6
I2
g13
tp1110
(Ntp1111
s(g9
g6
I32
g13
tp1112
(Ntp1113
s(g1
g6
I51
g13
tp1114
(Ntp1115
s(g1
g2
I129
g3
tp1116
(Ntp1117
s(g24
g6
I141
g13
tp1118
(Ntp1119
s(g21
g6
I8
g3
tp1120
(Ntp1121
s(g18
g2
I68
g13
tp1122
(Ntp1123
s(g21
g2
I27
g13
tp1124
(Ntp1125
s(g12
g6
I183
g3
tp1126
(Ntp1127
s(g9
g6
I205
g13
tp1128
(Ntp1129
s(g1
g6
I68
g3
tp1130
(Ntp1131
s(g1
g2
I34
g3
tp1132
(Ntp1133
s(g9
g6
I232
g3
tp1134
(Ntp1135
s(g1
g25
I79
g3
tp1136
(Ntp1137
s(g12
g6
I148
g13
tp1138
(Ntp1139
s(g21
g2
I112
g13
tp1140
(Ntp1141
s(g21
g2
I37
g3
tp1142
(Ntp1143
s(g21
g2
I26
g3
tp1144
(Ntp1145
s(g12
g25
I60
g13
tp1146
(Ntp1147
s(g1
g25
I152
g13
tp1148
(Ntp1149
s(g12
g25
I11
g13
tp1150
(Ntp1151
s(g21
g2
I45
g13
tp1152
(Ntp1153
s(g1
g6
I42
g3
tp1154
(Ntp1155
s(g12
g25
I96
g3
tp1156
(Ntp1157
s(g9
g6
I22
g3
tp1158
(Ntp1159
s(g9
g25
I86
g13
tp1160
(Ntp1161
s(g18
g25
I62
g13
tp1162
(Ntp1163
s(g1
g6
I49
g3
tp1164
(Ntp1165
s(g1
g6
I56
g13
tp1166
(Ntp1167
s(g12
g6
I140
g3
tp1168
(Ntp1169
s(g24
g25
I117
g3
tp1170
(Ntp1171
s(g1
g2
I127
g3
tp1172
(Ntp1173
s(g24
g2
I114
g3
tp1174
(Ntp1175
s(g9
g25
I78
g3
tp1176
(Ntp1177
s(g24
g6
I173
g3
tp1178
(Ntp1179
s(g9
g6
I6
g3
tp1180
(Ntp1181
s(g18
g2
I53
g13
tp1182
(Ntp1183
s(g24
g25
I66
g3
tp1184
(Ntp1185
s(g21
g2
I51
g3
tp1186
(Ntp1187
s(g12
g2
I65
g13
tp1188
(Ntp1189
s(g24
g6
I159
g13
tp1190
(Ntp1191
s(g18
g6
I120
g3
tp1192
(Ntp1193
s(g9
g25
I85
g3
tp1194
(Ntp1195
s(g9
g6
I182
g13
tp1196
(Ntp1197
s(g18
g25
I129
g13
tp1198
(Ntp1199
s(g9
g6
I186
g3
tp1200
(Ntp1201
s(g12
g2
I90
g13
tp1202
(Ntp1203
s(g12
g6
I134
g13
tp1204
(Ntp1205
s(g24
g6
I166
g13
tp1206
(Ntp1207
s(g21
g2
I98
g13
tp1208
(Ntp1209
s(g24
g25
I40
g3
tp1210
(Ntp1211
s(g9
g6
I237
g3
tp1212
(Ntp1213
s(g9
g6
I36
g13
tp1214
(Ntp1215
s(g1
g2
I6
g3
tp1216
(Ntp1217
s(g1
g6
I132
g13
tp1218
(Ntp1219
s(g24
g6
I137
g13
tp1220
(Ntp1221
s(g12
g6
I52
g3
tp1222
(Ntp1223
s(g21
g25
I39
g3
tp1224
(Ntp1225
s(g1
g6
I19
g3
tp1226
(Ntp1227
s(g9
g2
I42
g3
tp1228
(Ntp1229
s(g21
g25
I98
g3
tp1230
(Ntp1231
s(g18
g2
I41
g3
tp1232
(Ntp1233
s(g1
g6
I3
g3
tp1234
(Ntp1235
s(g9
g6
I209
g13
tp1236
(Ntp1237
s(g9
g6
I224
g3
tp1238
(Ntp1239
s(g9
g2
I6
g3
tp1240
(Ntp1241
s(g18
g6
I118
g3
tp1242
(Ntp1243
s(g12
g6
I15
g3
tp1244
(Ntp1245
s(g9
g25
I115
g13
tp1246
(Ntp1247
s(g24
g2
I121
g3
tp1248
(Ntp1249
s(g24
g2
I15
g3
tp1250
(Ntp1251
s(g1
g2
I104
g3
tp1252
(Ntp1253
s(g12
g25
I68
g3
tp1254
(Ntp1255
s(g12
g25
I56
g13
tp1256
(Ntp1257
s(g12
g6
I43
g3
tp1258
(Ntp1259
s(g9
g2
I49
g3
tp1260
(Ntp1261
s(g12
g25
I7
g13
tp1262
(Ntp1263
s(g9
g6
I50
g3
tp1264
(Ntp1265
s(g12
g2
I18
g13
tp1266
(Ntp1267
s(g21
g2
I33
g13
tp1268
(Ntp1269
s(g21
g2
I6
g3
tp1270
(Ntp1271
s(g24
g25
I81
g3
tp1272
(Ntp1273
s(g1
g2
I83
g3
tp1274
(Ntp1275
s(g12
g25
I49
g13
tp1276
(Ntp1277
s(g12
g6
I121
g3
tp1278
(Ntp1279
s(g1
g6
I178
g3
tp1280
(Ntp1281
s(g18
g25
I58
g13
tp1282
(Ntp1283
s(g9
g25
I109
g13
tp1284
(Ntp1285
s(g18
g6
I125
g3
tp1286
(Ntp1287
s(g24
g25
I94
g3
tp1288
(Ntp1289
s(g24
g2
I118
g3
tp1290
(Ntp1291
s(g24
g6
I21
g3
tp1292
(Ntp1293
s(g18
g2
I95
g3
tp1294
(Ntp1295
s(g24
g6
I161
g3
tp1296
(Ntp1297
s(g18
g6
I17
g3
tp1298
(Ntp1299
s(g24
g6
I155
g13
tp1300
(Ntp1301
s(g21
g2
I13
g3
tp1302
(Ntp1303
s(g1
g6
I46
g3
tp1304
(Ntp1305
s(g1
g6
I208
g3
tp1306
(Ntp1307
s(g21
g25
I48
g3
tp1308
(Ntp1309
s(g12
g2
I94
g13
tp1310
(Ntp1311
s(g24
g6
I162
g13
tp1312
(Ntp1313
s(g21
g2
I102
g13
tp1314
(Ntp1315
s(g24
g6
I127
g3
tp1316
(Ntp1317
s(g18
g6
I107
g3
tp1318
(Ntp1319
s(g9
g6
I40
g13
tp1320
(Ntp1321
s(g1
g6
I201
g3
tp1322
(Ntp1323
s(g1
g6
I128
g13
tp1324
(Ntp1325
s(g12
g25
I21
g13
tp1326
(Ntp1327
s(g1
g6
I69
g3
tp1328
(Ntp1329
s(g12
g2
I32
g13
tp1330
(Ntp1331
s(g21
g2
I19
g13
tp1332
(Ntp1333
s(g9
g6
I117
g3
tp1334
(Ntp1335
s(g9
g6
I213
g13
tp1336
(Ntp1337
s(g24
g6
I27
g3
tp1338
(Ntp1339
s(g21
g2
I27
g3
tp1340
(Ntp1341
s(g1
g6
I155
g3
tp1342
(Ntp1343
s(g12
g2
I57
g13
tp1344
(Ntp1345
s(g24
g6
I156
g13
tp1346
(Ntp1347
s(g24
g6
I7
g13
tp1348
(Ntp1349
s(g9
g25
I127
g13
tp1350
(Ntp1351
s(g12
g6
I168
g13
tp1352
(Ntp1353
s(g1
g6
I191
g3
tp1354
(Ntp1355
s(g9
g6
I62
g13
tp1356
(Ntp1357
s(g1
g25
I128
g13
tp1358
(Ntp1359
s(g1
g6
I158
g13
tp1360
(Ntp1361
s(g12
g25
I3
g13
tp1362
(Ntp1363
s(g24
g25
I36
g3
tp1364
(Ntp1365
s(g12
g2
I57
g3
tp1366
(Ntp1367
s(g1
g25
I117
g3
tp1368
(Ntp1369
s(g21
g2
I37
g13
tp1370
(Ntp1371
s(g18
g6
I183
g13
tp1372
(Ntp1373
s(g21
g6
I38
g3
tp1374
(Ntp1375
s(g9
g6
I235
g13
tp1376
(Ntp1377
s(g9
g6
I112
g13
tp1378
(Ntp1379
s(g1
g25
I18
g13
tp1380
(Ntp1381
s(g21
g25
I4
g13
tp1382
(Ntp1383
s(g9
g25
I94
g13
tp1384
(Ntp1385
s(g12
g2
I47
g13
tp1386
(Ntp1387
s(g12
g6
I203
g13
tp1388
(Ntp1389
s(g9
g25
I105
g13
tp1390
(Ntp1391
s(g9
g6
I150
g3
tp1392
(Ntp1393
s(g24
g6
I133
g3
tp1394
(Ntp1395
s(g18
g2
I7
g13
tp1396
(Ntp1397
s(g21
g6
I164
g3
tp1398
(Ntp1399
s(g21
g25
I57
g13
tp1400
(Ntp1401
s(g24
g2
I125
g3
tp1402
(Ntp1403
s(g24
g6
I185
g3
tp1404
(Ntp1405
s(g18
g2
I13
g13
tp1406
(Ntp1407
s(g21
g2
I64
g13
tp1408
(Ntp1409
s(g24
g2
I17
g3
tp1410
(Ntp1411
s(g12
g25
I108
g3
tp1412
(Ntp1413
s(g24
g25
I135
g3
tp1414
(Ntp1415
s(g9
g6
I60
g3
tp1416
(Ntp1417
s(g18
g2
I94
g3
tp1418
(Ntp1419
s(g1
g6
I89
g3
tp1420
(Ntp1421
s(g24
g2
I35
g3
tp1422
(Ntp1423
s(g24
g6
I174
g13
tp1424
(Ntp1425
s(g21
g6
I181
g13
tp1426
(Ntp1427
s(g1
g6
I140
g13
tp1428
(Ntp1429
s(g12
g2
I36
g13
tp1430
(Ntp1431
s(g24
g25
I118
g3
tp1432
(Ntp1433
s(g18
g6
I82
g3
tp1434
(Ntp1435
s(g9
g6
I217
g13
tp1436
(Ntp1437
s(g12
g6
I180
g3
tp1438
(Ntp1439
s(g9
g25
I127
g3
tp1440
(Ntp1441
s(g21
g25
I118
g13
tp1442
(Ntp1443
s(g12
g2
I61
g13
tp1444
(Ntp1445
s(g24
g6
I152
g13
tp1446
(Ntp1447
s(g24
g6
I3
g13
tp1448
(Ntp1449
s(g12
g6
I172
g13
tp1450
(Ntp1451
s(g9
g2
I16
g3
tp1452
(Ntp1453
s(g1
g25
I132
g13
tp1454
(Ntp1455
s(g21
g25
I43
g13
tp1456
(Ntp1457
s(g21
g2
I34
g3
tp1458
(Ntp1459
s(g9
g6
I155
g3
tp1460
(Ntp1461
s(g1
g6
I154
g13
tp1462
(Ntp1463
s(g24
g6
I214
g13
tp1464
(Ntp1465
s(g21
g2
I57
g13
tp1466
(Ntp1467
s(g12
g6
I69
g3
tp1468
(Ntp1469
s(g12
g6
I122
g3
tp1470
(Ntp1471
s(g18
g6
I171
g13
tp1472
(Ntp1473
s(g9
g25
I64
g13
tp1474
(Ntp1475
s(g9
g6
I178
g3
tp1476
(Ntp1477
s(g12
g6
I197
g13
tp1478
(Ntp1479
s(g9
g2
I116
g3
tp1480
(Ntp1481
s(g1
g25
I22
g13
tp1482
(Ntp1483
s(g1
g25
I113
g3
tp1484
(Ntp1485
s(g12
g2
I35
g13
tp1486
(Ntp1487
s(g12
g6
I207
g13
tp1488
(Ntp1489
s(g24
g2
I38
g13
tp1490
(Ntp1491
s(g18
g6
I101
g3
tp1492
(Ntp1493
s(g18
g6
I192
g13
tp1494
(Ntp1495
s(g21
g2
I92
g3
tp1496
(Ntp1497
s(g18
g2
I27
g13
tp1498
(Ntp1499
s(g9
g6
I93
g13
tp1500
(Ntp1501
s(g24
g2
I117
g3
tp1502
(Ntp1503
s(g24
g6
I20
g3
tp1504
(Ntp1505
s(g21
g25
I53
g13
tp1506
(Ntp1507
s(g9
g2
I91
g3
tp1508
(Ntp1509
s(g21
g2
I68
g13
tp1510
(Ntp1511
s(g18
g6
I157
g13
tp1512
(Ntp1513
s(g9
g6
I10
g13
tp1514
(Ntp1515
s(g1
g2
I34
g13
tp1516
(Ntp1517
s(g1
g6
I187
g3
tp1518
(Ntp1519
s(g1
g25
I8
g13
tp1520
(Ntp1521
s(g12
g6
I83
g3
tp1522
(Ntp1523
s(g12
g6
I42
g13
tp1524
(Ntp1525
s(g1
g6
I152
g3
tp1526
(Ntp1527
s(g9
g25
I104
g3
tp1528
(Ntp1529
s(g18
g6
I87
g3
tp1530
(Ntp1531
s(g21
g6
I169
g13
tp1532
(Ntp1533
s(g1
g25
I24
g3
tp1534
(Ntp1535
s(g9
g25
I17
g13
tp1536
(Ntp1537
s(g9
g6
I238
g3
tp1538
(Ntp1539
s(g24
g2
I92
g3
tp1540
(Ntp1541
s(g1
g2
I28
g13
tp1542
(Ntp1543
s(g24
g6
I139
g3
tp1544
(Ntp1545
s(g1
g6
I199
g13
tp1546
(Ntp1547
s(g12
g6
I104
g3
tp1548
(Ntp1549
s(g21
g2
I39
g3
tp1550
(Ntp1551
s(g1
g6
I20
g3
tp1552
(Ntp1553
s(g18
g25
I119
g3
tp1554
(Ntp1555
s(g21
g25
I114
g13
tp1556
(Ntp1557
s(g21
g6
I136
g13
tp1558
(Ntp1559
s(g21
g6
I170
g13
tp1560
(Ntp1561
s(g1
g25
I63
g3
tp1562
(Ntp1563
s(g12
g2
I49
g13
tp1564
(Ntp1565
s(g24
g6
I132
g13
tp1566
(Ntp1567
s(g24
g6
I15
g13
tp1568
(Ntp1569
s(g1
g25
I98
g3
tp1570
(Ntp1571
s(g21
g6
I223
g13
tp1572
(Ntp1573
s(g12
g2
I74
g3
tp1574
(Ntp1575
s(g18
g6
I210
g13
tp1576
(Ntp1577
s(g21
g2
I117
g3
tp1578
(Ntp1579
s(g9
g6
I20
g3
tp1580
(Ntp1581
s(g1
g2
I64
g3
tp1582
(Ntp1583
s(g21
g25
I39
g13
tp1584
(Ntp1585
s(g24
g6
I210
g13
tp1586
(Ntp1587
s(g1
g6
I63
g3
tp1588
(Ntp1589
s(g24
g25
I76
g13
tp1590
(Ntp1591
s(g9
g2
I103
g3
tp1592
(Ntp1593
s(g12
g25
I85
g3
tp1594
(Ntp1595
s(g18
g6
I175
g13
tp1596
(Ntp1597
s(g12
g25
I16
g3
tp1598
(Ntp1599
s(g18
g25
I45
g3
tp1600
(Ntp1601
s(g9
g6
I120
g13
tp1602
(Ntp1603
s(g9
g6
I35
g3
tp1604
(Ntp1605
s(g1
g25
I145
g13
tp1606
(Ntp1607
s(g1
g25
I26
g13
tp1608
(Ntp1609
s(g24
g6
I8
g3
tp1610
(Ntp1611
s(g21
g25
I28
g13
tp1612
(Ntp1613
s(g12
g2
I39
g13
tp1614
(Ntp1615
s(g12
g6
I102
g3
tp1616
(Ntp1617
s(g24
g25
I64
g3
tp1618
(Ntp1619
s(g1
g6
I193
g3
tp1620
(Ntp1621
s(g9
g25
I26
g13
tp1622
(Ntp1623
s(g1
g6
I125
g3
tp1624
(Ntp1625
s(g9
g25
I126
g3
tp1626
(Ntp1627
s(g18
g6
I196
g13
tp1628
(Ntp1629
s(g18
g6
I122
g3
tp1630
(Ntp1631
s(g9
g6
I97
g13
tp1632
(Ntp1633
s(g21
g25
I49
g13
tp1634
(Ntp1635
s(g21
g2
I88
g13
tp1636
(Ntp1637
s(g24
g25
I18
g3
tp1638
(Ntp1639
s(g9
g6
I73
g3
tp1640
(Ntp1641
s(g9
g6
I14
g13
tp1642
(Ntp1643
s(g1
g2
I46
g13
tp1644
(Ntp1645
s(g18
g6
I199
g3
tp1646
(Ntp1647
s(g1
g25
I12
g13
tp1648
(Ntp1649
s(g24
g25
I93
g13
tp1650
(Ntp1651
s(g21
g25
I108
g3
tp1652
(Ntp1653
s(g12
g6
I46
g13
tp1654
(Ntp1655
s(g9
g25
I52
g13
tp1656
(Ntp1657
s(g12
g6
I109
g3
tp1658
(Ntp1659
s(g24
g25
I7
g3
tp1660
(Ntp1661
s(g9
g6
I138
g3
tp1662
(Ntp1663
s(g9
g6
I119
g13
tp1664
(Ntp1665
s(g21
g6
I173
g13
tp1666
(Ntp1667
s(g1
g2
I41
g3
tp1668
(Ntp1669
s(g18
g2
I54
g3
tp1670
(Ntp1671
s(g18
g6
I83
g3
tp1672
(Ntp1673
s(g18
g25
I91
g3
tp1674
(Ntp1675
s(g12
g6
I1
g3
tp1676
(Ntp1677
s(g1
g2
I24
g13
tp1678
(Ntp1679
s(g1
g6
I99
g3
tp1680
(Ntp1681
s(g9
g2
I90
g3
tp1682
(Ntp1683
s(g21
g25
I114
g3
tp1684
(Ntp1685
s(g12
g25
I66
g3
tp1686
(Ntp1687
s(g9
g6
I48
g3
tp1688
(Ntp1689
s(g1
g2
I36
g3
tp1690
(Ntp1691
s(g9
g2
I77
g3
tp1692
(Ntp1693
s(g24
g6
I11
g13
tp1694
(Ntp1695
s(g21
g6
I211
g13
tp1696
(Ntp1697
s(g1
g6
I156
g3
tp1698
(Ntp1699
s(g24
g2
I9
g3
tp1700
(Ntp1701
s(g18
g6
I214
g13
tp1702
(Ntp1703
s(g18
g25
I49
g3
tp1704
(Ntp1705
s(g12
g6
I123
g3
tp1706
(Ntp1707
s(g9
g6
I63
g3
tp1708
(Ntp1709
s(g9
g6
I179
g3
tp1710
(Ntp1711
s(g1
g6
I176
g3
tp1712
(Ntp1713
s(g1
g6
I166
g13
tp1714
(Ntp1715
s(g24
g25
I80
g13
tp1716
(Ntp1717
s(g24
g25
I92
g3
tp1718
(Ntp1719
s(g18
g6
I163
g13
tp1720
(Ntp1721
s(g9
g6
I124
g13
tp1722
(Ntp1723
s(g12
g6
I61
g13
tp1724
(Ntp1725
s(g1
g25
I30
g13
tp1726
(Ntp1727
s(g21
g25
I24
g13
tp1728
(Ntp1729
s(g12
g2
I43
g3
tp1730
(Ntp1731
s(g24
g2
I116
g3
tp1732
(Ntp1733
s(g24
g6
I163
g3
tp1734
(Ntp1735
s(g12
g6
I3
g13
tp1736
(Ntp1737
s(g18
g6
I184
g13
tp1738
(Ntp1739
s(g9
g6
I101
g13
tp1740
(Ntp1741
s(g24
g25
I10
g3
tp1742
(Ntp1743
s(g24
g6
I148
g3
tp1744
(Ntp1745
s(g21
g2
I92
g13
tp1746
(Ntp1747
s(g24
g6
I119
g13
tp1748
(Ntp1749
s(g18
g6
I149
g13
tp1750
(Ntp1751
s(g18
g6
I14
g13
tp1752
(Ntp1753
s(g18
g6
I1
g3
tp1754
(Ntp1755
s(g12
g2
I68
g3
tp1756
(Ntp1757
s(g1
g2
I112
g13
tp1758
(Ntp1759
s(g9
g6
I18
g13
tp1760
(Ntp1761
s(g1
g2
I42
g13
tp1762
(Ntp1763
s(g24
g6
I124
g3
tp1764
(Ntp1765
s(g12
g25
I47
g13
tp1766
(Ntp1767
s(g1
g6
I62
g3
tp1768
(Ntp1769
s(g12
g6
I34
g13
tp1770
(Ntp1771
s(g1
g6
I178
g13
tp1772
(Ntp1773
s(g9
g25
I48
g13
tp1774
(Ntp1775
s(g1
g25
I91
g3
tp1776
(Ntp1777
s(g12
g6
I21
g13
tp1778
(Ntp1779
s(g18
g6
I39
g13
tp1780
(Ntp1781
s(g18
g6
I63
g3
tp1782
(Ntp1783
s(g1
g6
I119
g3
tp1784
(Ntp1785
s(g21
g6
I161
g13
tp1786
(Ntp1787
s(g21
g25
I80
g13
tp1788
(Ntp1789
s(g24
g2
I91
g3
tp1790
(Ntp1791
s(g18
g6
I91
g3
tp1792
(Ntp1793
s(g9
g25
I25
g13
tp1794
(Ntp1795
s(g1
g6
I21
g3
tp1796
(Ntp1797
s(g1
g2
I4
g13
tp1798
(Ntp1799
s(g21
g6
I115
g3
tp1800
(Ntp1801
s(g24
g2
I5
g13
tp1802
(Ntp1803
s(g1
g25
I111
g13
tp1804
(Ntp1805
s(g21
g25
I73
g13
tp1806
(Ntp1807
s(g21
g6
I215
g13
tp1808
(Ntp1809
s(g21
g6
I76
g13
tp1810
(Ntp1811
s(g21
g6
I67
g3
tp1812
(Ntp1813
s(g1
g2
I123
g13
tp1814
(Ntp1815
s(g24
g25
I52
g3
tp1816
(Ntp1817
s(g9
g6
I148
g3
tp1818
(Ntp1819
s(g24
g25
I84
g13
tp1820
(Ntp1821
s(g24
g6
I135
g3
tp1822
(Ntp1823
s(g12
g6
I66
g3
tp1824
(Ntp1825
s(g9
g2
I108
g13
tp1826
(Ntp1827
s(g1
g6
I122
g3
tp1828
(Ntp1829
s(g18
g2
I37
g3
tp1830
(Ntp1831
s(g21
g6
I25
g3
tp1832
(Ntp1833
s(g24
g6
I225
g13
tp1834
(Ntp1835
s(g21
g6
I114
g13
tp1836
(Ntp1837
s(g24
g6
I136
g3
tp1838
(Ntp1839
s(g1
g25
I76
g3
tp1840
(Ntp1841
s(g9
g2
I117
g13
tp1842
(Ntp1843
s(g21
g25
I66
g13
tp1844
(Ntp1845
s(g24
g25
I133
g3
tp1846
(Ntp1847
s(g9
g6
I26
g13
tp1848
(Ntp1849
s(g24
g2
I77
g3
tp1850
(Ntp1851
s(g1
g2
I42
g3
tp1852
(Ntp1853
s(g12
g25
I99
g13
tp1854
(Ntp1855
s(g24
g6
I63
g13
tp1856
(Ntp1857
s(g12
g2
I76
g3
tp1858
(Ntp1859
s(g24
g25
I49
g13
tp1860
(Ntp1861
s(g24
g6
I115
g13
tp1862
(Ntp1863
s(g18
g6
I137
g13
tp1864
(Ntp1865
s(g18
g6
I2
g13
tp1866
(Ntp1867
s(g1
g25
I55
g3
tp1868
(Ntp1869
s(g21
g25
I109
g3
tp1870
(Ntp1871
s(g12
g6
I60
g13
tp1872
(Ntp1873
s(g9
g6
I207
g3
tp1874
(Ntp1875
s(g9
g6
I201
g3
tp1876
(Ntp1877
s(g24
g6
I210
g3
tp1878
(Ntp1879
s(g12
g6
I38
g13
tp1880
(Ntp1881
s(g24
g6
I70
g13
tp1882
(Ntp1883
s(g21
g6
I123
g13
tp1884
(Ntp1885
s(g18
g6
I27
g13
tp1886
(Ntp1887
s(g9
g25
I52
g3
tp1888
(Ntp1889
s(g9
g25
I128
g3
tp1890
(Ntp1891
s(g1
g25
I74
g13
tp1892
(Ntp1893
s(g21
g25
I108
g13
tp1894
(Ntp1895
s(g18
g6
I84
g3
tp1896
(Ntp1897
s(g24
g6
I109
g13
tp1898
(Ntp1899
s(g9
g25
I5
g13
tp1900
(Ntp1901
s(g24
g25
I120
g3
tp1902
(Ntp1903
s(g1
g25
I83
g13
tp1904
(Ntp1905
s(g21
g25
I69
g13
tp1906
(Ntp1907
s(g21
g6
I111
g3
tp1908
(Ntp1909
s(g24
g6
I48
g13
tp1910
(Ntp1911
s(g9
g2
I126
g13
tp1912
(Ntp1913
s(g1
g2
I94
g13
tp1914
(Ntp1915
s(g12
g25
I8
g3
tp1916
(Ntp1917
s(g18
g6
I13
g13
tp1918
(Ntp1919
s(g12
g6
I71
g3
tp1920
(Ntp1921
s(g1
g25
I60
g13
tp1922
(Ntp1923
s(g21
g6
I203
g13
tp1924
(Ntp1925
s(g21
g6
I64
g13
tp1926
(Ntp1927
s(g9
g6
I176
g3
tp1928
(Ntp1929
s(g1
g25
I120
g13
tp1930
(Ntp1931
s(g18
g25
I124
g13
tp1932
(Ntp1933
s(g9
g2
I71
g13
tp1934
(Ntp1935
s(g21
g2
I114
g3
tp1936
(Ntp1937
s(g1
g25
I115
g3
tp1938
(Ntp1939
s(g12
g6
I109
g13
tp1940
(Ntp1941
s(g1
g2
I103
g13
tp1942
(Ntp1943
s(g21
g6
I5
g3
tp1944
(Ntp1945
s(g12
g6
I74
g3
tp1946
(Ntp1947
s(g1
g25
I69
g13
tp1948
(Ntp1949
s(g21
g2
I94
g3
tp1950
(Ntp1951
s(g1
g6
I166
g3
tp1952
(Ntp1953
s(g24
g2
I72
g3
tp1954
(Ntp1955
s(g9
g2
I100
g3
tp1956
(Ntp1957
s(g1
g2
I23
g3
tp1958
(Ntp1959
s(g1
g2
I72
g13
tp1960
(Ntp1961
s(g1
g2
I14
g3
tp1962
(Ntp1963
s(g21
g6
I118
g13
tp1964
(Ntp1965
s(g21
g2
I105
g3
tp1966
(Ntp1967
s(g1
g2
I126
g3
tp1968
(Ntp1969
s(g24
g2
I26
g3
tp1970
(Ntp1971
s(g9
g2
I121
g13
tp1972
(Ntp1973
s(g1
g6
I84
g13
tp1974
(Ntp1975
s(g18
g6
I32
g3
tp1976
(Ntp1977
s(g1
g2
I81
g13
tp1978
(Ntp1979
s(g24
g6
I59
g13
tp1980
(Ntp1981
s(g1
g6
I131
g3
tp1982
(Ntp1983
s(g24
g25
I53
g13
tp1984
(Ntp1985
s(g9
g2
I14
g3
tp1986
(Ntp1987
s(g18
g6
I6
g13
tp1988
(Ntp1989
s(g24
g25
I106
g13
tp1990
(Ntp1991
s(g24
g25
I40
g13
tp1992
(Ntp1993
s(g24
g25
I1
g13
tp1994
(Ntp1995
s(g24
g6
I81
g3
tp1996
(Ntp1997
s(g18
g6
I48
g3
tp1998
(Ntp1999
s(g18
g6
I196
g3
tp2000
(Ntp2001
s(g24
g6
I66
g13
tp2002
(Ntp2003
s(g1
g6
I168
g3
tp2004
(Ntp2005
s(g18
g6
I31
g13
tp2006
(Ntp2007
s(g1
g25
I78
g13
tp2008
(Ntp2009
s(g21
g25
I104
g13
tp2010
(Ntp2011
s(g24
g25
I11
g13
tp2012
(Ntp2013
s(g12
g6
I12
g13
tp2014
(Ntp2015
s(g18
g6
I30
g3
tp2016
(Ntp2017
s(g1
g25
I87
g13
tp2018
(Ntp2019
s(g21
g25
I65
g13
tp2020
(Ntp2021
s(g1
g6
I100
g3
tp2022
(Ntp2023
s(g1
g2
I66
g3
tp2024
(Ntp2025
s(g24
g6
I60
g13
tp2026
(Ntp2027
s(g12
g25
I30
g3
tp2028
(Ntp2029
s(g1
g2
I90
g13
tp2030
(Ntp2031
s(g18
g6
I1
g13
tp2032
(Ntp2033
s(g18
g6
I122
g13
tp2034
(Ntp2035
s(g9
g6
I200
g3
tp2036
(Ntp2037
s(g1
g25
I111
g3
tp2038
(Ntp2039
s(g9
g2
I105
g3
tp2040
(Ntp2041
s(g1
g25
I32
g13
tp2042
(Ntp2043
s(g21
g6
I68
g13
tp2044
(Ntp2045
s(g18
g6
I9
g3
tp2046
(Ntp2047
s(g24
g25
I59
g3
tp2048
(Ntp2049
s(g21
g2
I5
g3
tp2050
(Ntp2051
s(g1
g2
I53
g3
tp2052
(Ntp2053
s(g1
g6
I54
g3
tp2054
(Ntp2055
s(g18
g25
I120
g13
tp2056
(Ntp2057
s(g9
g2
I75
g13
tp2058
(Ntp2059
s(g18
g6
I87
g13
tp2060
(Ntp2061
s(g18
g25
I50
g3
tp2062
(Ntp2063
s(g12
g6
I97
g13
tp2064
(Ntp2065
s(g1
g2
I99
g13
tp2066
(Ntp2067
s(g1
g6
I202
g3
tp2068
(Ntp2069
s(g1
g25
I73
g13
tp2070
(Ntp2071
s(g24
g25
I24
g13
tp2072
(Ntp2073
s(g24
g25
I121
g3
tp2074
(Ntp2075
s(g18
g25
I17
g13
tp2076
(Ntp2077
s(g1
g2
I52
g13
tp2078
(Ntp2079
s(g21
g6
I106
g13
tp2080
(Ntp2081
s(g1
g6
I209
g3
tp2082
(Ntp2083
s(g24
g25
I21
g3
tp2084
(Ntp2085
s(g21
g6
I153
g3
tp2086
(Ntp2087
s(g24
g6
I205
g3
tp2088
(Ntp2089
s(g18
g25
I70
g13
tp2090
(Ntp2091
s(g9
g2
I125
g13
tp2092
(Ntp2093
s(g1
g6
I80
g13
tp2094
(Ntp2095
s(g1
g2
I93
g13
tp2096
(Ntp2097
s(g24
g25
I57
g13
tp2098
(Ntp2099
s(g24
g25
I98
g3
tp2100
(Ntp2101
s(g24
g25
I5
g3
tp2102
(Ntp2103
s(g21
g6
I67
g13
tp2104
(Ntp2105
s(g9
g6
I167
g3
tp2106
(Ntp2107
s(g21
g6
I59
g3
tp2108
(Ntp2109
s(g1
g6
I121
g13
tp2110
(Ntp2111
s(g9
g25
I53
g3
tp2112
(Ntp2113
s(g21
g2
I89
g13
tp2114
(Ntp2115
s(g21
g25
I40
g3
tp2116
(Ntp2117
s(g18
g2
I19
g3
tp2118
(Ntp2119
s(g21
g6
I21
g13
tp2120
(Ntp2121
s(g18
g6
I19
g13
tp2122
(Ntp2123
s(g9
g2
I24
g13
tp2124
(Ntp2125
s(g9
g2
I81
g3
tp2126
(Ntp2127
s(g18
g6
I60
g3
tp2128
(Ntp2129
s(g9
g6
I67
g13
tp2130
(Ntp2131
s(g1
g2
I25
g3
tp2132
(Ntp2133
s(g1
g2
I38
g3
tp2134
(Ntp2135
s(g18
g2
I45
g3
tp2136
(Ntp2137
s(g18
g2
I41
g13
tp2138
(Ntp2139
s(g12
g6
I17
g3
tp2140
(Ntp2141
s(g21
g25
I7
g3
tp2142
(Ntp2143
s(g9
g2
I10
g3
tp2144
(Ntp2145
s(g1
g25
I91
g13
tp2146
(Ntp2147
s(g21
g25
I93
g13
tp2148
(Ntp2149
s(g24
g6
I56
g13
tp2150
(Ntp2151
s(g9
g6
I177
g3
tp2152
(Ntp2153
s(g12
g6
I76
g13
tp2154
(Ntp2155
s(g1
g6
I95
g13
tp2156
(Ntp2157
s(g18
g6
I5
g13
tp2158
(Ntp2159
s(g18
g6
I126
g13
tp2160
(Ntp2161
s(g12
g6
I47
g3
tp2162
(Ntp2163
s(g24
g2
I25
g3
tp2164
(Ntp2165
s(g12
g6
I75
g3
tp2166
(Ntp2167
s(g18
g25
I116
g13
tp2168
(Ntp2169
s(g1
g6
I167
g3
tp2170
(Ntp2171
s(g12
g6
I101
g13
tp2172
(Ntp2173
s(g1
g2
I111
g13
tp2174
(Ntp2175
s(g1
g25
I77
g13
tp2176
(Ntp2177
s(g21
g2
I31
g3
tp2178
(Ntp2179
s(g24
g25
I113
g3
tp2180
(Ntp2181
s(g24
g2
I121
g13
tp2182
(Ntp2183
s(g1
g2
I15
g3
tp2184
(Ntp2185
s(g21
g6
I133
g3
tp2186
(Ntp2187
s(g18
g25
I109
g13
tp2188
(Ntp2189
s(g1
g2
I48
g13
tp2190
(Ntp2191
s(g21
g6
I51
g13
tp2192
(Ntp2193
s(g21
g2
I72
g3
tp2194
(Ntp2195
s(g18
g6
I96
g13
tp2196
(Ntp2197
s(g21
g6
I110
g13
tp2198
(Ntp2199
s(g18
g25
I66
g13
tp2200
(Ntp2201
s(g9
g2
I97
g13
tp2202
(Ntp2203
s(g1
g6
I92
g13
tp2204
(Ntp2205
s(g18
g6
I61
g13
tp2206
(Ntp2207
s(g18
g6
I134
g13
tp2208
(Ntp2209
s(g1
g2
I89
g13
tp2210
(Ntp2211
s(g21
g2
I44
g3
tp2212
(Ntp2213
s(g21
g6
I187
g13
tp2214
(Ntp2215
s(g24
g25
I61
g13
tp2216
(Ntp2217
s(g24
g6
I53
g3
tp2218
(Ntp2219
s(g21
g6
I71
g13
tp2220
(Ntp2221
s(g24
g6
I193
g3
tp2222
(Ntp2223
s(g18
g6
I49
g3
tp2224
(Ntp2225
s(g24
g25
I114
g13
tp2226
(Ntp2227
s(g18
g6
I160
g3
tp2228
(Ntp2229
s(g9
g2
I55
g13
tp2230
(Ntp2231
s(g1
g6
I206
g3
tp2232
(Ntp2233
s(g18
g25
I123
g13
tp2234
(Ntp2235
s(g1
g6
I69
g13
tp2236
(Ntp2237
s(g21
g6
I9
g13
tp2238
(Ntp2239
s(g24
g6
I209
g3
tp2240
(Ntp2241
s(g9
g2
I28
g13
tp2242
(Ntp2243
s(g24
g2
I64
g3
tp2244
(Ntp2245
s(g1
g6
I101
g3
tp2246
(Ntp2247
s(g9
g2
I41
g13
tp2248
(Ntp2249
s(g9
g6
I128
g13
tp2250
(Ntp2251
s(g9
g6
I85
g3
tp2252
(Ntp2253
s(g24
g6
I59
g3
tp2254
(Ntp2255
s(g24
g6
I36
g13
tp2256
(Ntp2257
s(g21
g6
I63
g13
tp2258
(Ntp2259
s(g18
g6
I158
g3
tp2260
(Ntp2261
s(g18
g6
I114
g13
tp2262
(Ntp2263
s(g9
g6
I173
g13
tp2264
(Ntp2265
s(g12
g2
I15
g3
tp2266
(Ntp2267
s(g12
g6
I68
g3
tp2268
(Ntp2269
s(g18
g25
I112
g13
tp2270
(Ntp2271
s(g18
g6
I79
g13
tp2272
(Ntp2273
s(g12
g6
I121
g13
tp2274
(Ntp2275
s(g12
g25
I92
g13
tp2276
(Ntp2277
s(g1
g25
I41
g3
tp2278
(Ntp2279
s(g1
g25
I49
g13
tp2280
(Ntp2281
s(g21
g6
I6
g3
tp2282
(Ntp2283
s(g12
g6
I129
g3
tp2284
(Ntp2285
s(g1
g6
I74
g3
tp2286
(Ntp2287
s(g18
g25
I105
g13
tp2288
(Ntp2289
s(g18
g6
I100
g13
tp2290
(Ntp2291
s(g9
g6
I2
g3
tp2292
(Ntp2293
s(g1
g25
I57
g3
tp2294
(Ntp2295
s(g24
g6
I165
g3
tp2296
(Ntp2297
s(g21
g6
I132
g3
tp2298
(Ntp2299
s(g18
g25
I94
g13
tp2300
(Ntp2301
s(g24
g2
I114
g13
tp2302
(Ntp2303
s(g18
g6
I49
g13
tp2304
(Ntp2305
s(g24
g2
I29
g3
tp2306
(Ntp2307
s(g1
g2
I90
g3
tp2308
(Ntp2309
s(g1
g2
I69
g13
tp2310
(Ntp2311
s(g24
g2
I49
g3
tp2312
(Ntp2313
s(g9
g2
I59
g13
tp2314
(Ntp2315
s(g18
g2
I85
g13
tp2316
(Ntp2317
s(g18
g25
I119
g13
tp2318
(Ntp2319
s(g24
g25
I51
g3
tp2320
(Ntp2321
s(g9
g6
I28
g3
tp2322
(Ntp2323
s(g21
g6
I13
g13
tp2324
(Ntp2325
s(g24
g2
I6
g3
tp2326
(Ntp2327
s(g9
g25
I112
g3
tp2328
(Ntp2329
s(g18
g2
I34
g3
tp2330
(Ntp2331
s(g18
g25
I33
g13
tp2332
(Ntp2333
s(g12
g6
I48
g3
tp2334
(Ntp2335
s(g21
g25
I102
g3
tp2336
(Ntp2337
s(g24
g25
I72
g3
tp2338
(Ntp2339
s(g9
g2
I45
g13
tp2340
(Ntp2341
s(g9
g6
I132
g13
tp2342
(Ntp2343
s(g24
g25
I13
g3
tp2344
(Ntp2345
s(g18
g6
I177
g3
tp2346
(Ntp2347
s(g1
g6
I36
g13
tp2348
(Ntp2349
s(g18
g6
I114
g3
tp2350
(Ntp2351
s(g12
g2
I76
g13
tp2352
(Ntp2353
s(g12
g6
I32
g3
tp2354
(Ntp2355
s(g1
g6
I19
g13
tp2356
(Ntp2357
s(g9
g25
I95
g3
tp2358
(Ntp2359
s(g12
g2
I8
g13
tp2360
(Ntp2361
s(g24
g6
I149
g13
tp2362
(Ntp2363
s(g18
g2
I73
g3
tp2364
(Ntp2365
s(g18
g6
I118
g13
tp2366
(Ntp2367
s(g9
g6
I177
g13
tp2368
(Ntp2369
s(g9
g6
I159
g3
tp2370
(Ntp2371
s(g9
g2
I102
g3
tp2372
(Ntp2373
s(g1
g25
I5
g3
tp2374
(Ntp2375
s(g24
g2
I96
g13
tp2376
(Ntp2377
s(g21
g2
I2
g3
tp2378
(Ntp2379
s(g18
g6
I67
g13
tp2380
(Ntp2381
s(g1
g2
I8
g3
tp2382
(Ntp2383
s(g18
g2
I27
g3
tp2384
(Ntp2385
s(g9
g6
I154
g13
tp2386
(Ntp2387
s(g12
g2
I14
g3
tp2388
(Ntp2389
s(g12
g6
I203
g3
tp2390
(Ntp2391
s(g12
g6
I101
g3
tp2392
(Ntp2393
s(g1
g6
I39
g3
tp2394
(Ntp2395
s(g12
g6
I14
g3
tp2396
(Ntp2397
s(g9
g6
I146
g3
tp2398
(Ntp2399
s(g9
g2
I84
g3
tp2400
(Ntp2401
s(g21
g2
I26
g13
tp2402
(Ntp2403
s(g18
g25
I101
g13
tp2404
(Ntp2405
s(g24
g2
I11
g13
tp2406
(Ntp2407
s(g18
g6
I88
g13
tp2408
(Ntp2409
s(g9
g2
I119
g13
tp2410
(Ntp2411
s(g12
g6
I25
g3
tp2412
(Ntp2413
s(g24
g2
I1
g13
tp2414
(Ntp2415
s(g24
g2
I106
g3
tp2416
(Ntp2417
s(g9
g6
I53
g13
tp2418
(Ntp2419
s(g18
g25
I90
g13
tp2420
(Ntp2421
s(g24
g2
I126
g13
tp2422
(Ntp2423
s(g18
g6
I29
g3
tp2424
(Ntp2425
s(g18
g6
I53
g13
tp2426
(Ntp2427
s(g18
g6
I161
g3
tp2428
(Ntp2429
s(g1
g6
I141
g3
tp2430
(Ntp2431
s(g12
g6
I115
g3
tp2432
(Ntp2433
s(g21
g6
I1
g13
tp2434
(Ntp2435
s(g1
g6
I184
g3
tp2436
(Ntp2437
s(g1
g6
I78
g3
tp2438
(Ntp2439
s(g12
g25
I10
g13
tp2440
(Ntp2441
s(g18
g25
I83
g3
tp2442
(Ntp2443
s(g18
g6
I119
g3
tp2444
(Ntp2445
s(g18
g25
I61
g13
tp2446
(Ntp2447
s(g9
g2
I4
g13
tp2448
(Ntp2449
s(g1
g25
I56
g3
tp2450
(Ntp2451
s(g21
g6
I26
g13
tp2452
(Ntp2453
s(g9
g6
I206
g3
tp2454
(Ntp2455
s(g24
g6
I31
g3
tp2456
(Ntp2457
s(g18
g2
I46
g3
tp2458
(Ntp2459
s(g24
g6
I171
g3
tp2460
(Ntp2461
s(g18
g6
I11
g3
tp2462
(Ntp2463
s(g9
g6
I136
g13
tp2464
(Ntp2465
s(g21
g2
I7
g3
tp2466
(Ntp2467
s(g1
g6
I32
g13
tp2468
(Ntp2469
s(g12
g2
I64
g13
tp2470
(Ntp2471
s(g1
g6
I11
g3
tp2472
(Ntp2473
s(g1
g6
I52
g3
tp2474
(Ntp2475
s(g1
g6
I31
g13
tp2476
(Ntp2477
s(g21
g6
I55
g13
tp2478
(Ntp2479
s(g12
g25
I90
g3
tp2480
(Ntp2481
s(g18
g25
I23
g3
tp2482
(Ntp2483
s(g12
g6
I140
g13
tp2484
(Ntp2485
s(g12
g6
I151
g13
tp2486
(Ntp2487
s(g9
g6
I181
g13
tp2488
(Ntp2489
s(g9
g6
I24
g3
tp2490
(Ntp2491
s(g18
g25
I11
g13
tp2492
(Ntp2493
s(g1
g6
I59
g3
tp2494
(Ntp2495
s(g24
g25
I127
g3
tp2496
(Ntp2497
s(g12
g2
I89
g13
tp2498
(Ntp2499
s(g24
g6
I167
g13
tp2500
(Ntp2501
s(g1
g2
I96
g3
tp2502
(Ntp2503
s(g24
g2
I108
g13
tp2504
(Ntp2505
s(g21
g6
I34
g3
tp2506
(Ntp2507
s(g21
g25
I61
g3
tp2508
(Ntp2509
s(g18
g25
I41
g3
tp2510
(Ntp2511
s(g9
g6
I158
g13
tp2512
(Ntp2513
s(g12
g25
I117
g3
tp2514
(Ntp2515
s(g1
g6
I62
g13
tp2516
(Ntp2517
s(g24
g25
I68
g3
tp2518
(Ntp2519
s(g9
g6
I3
g3
tp2520
(Ntp2521
s(g21
g2
I30
g13
tp2522
(Ntp2523
s(g24
g2
I23
g13
tp2524
(Ntp2525
s(g18
g6
I92
g13
tp2526
(Ntp2527
s(g9
g6
I208
g13
tp2528
(Ntp2529
s(g18
g6
I141
g3
tp2530
(Ntp2531
s(g24
g25
I96
g3
tp2532
(Ntp2533
s(g1
g6
I29
g3
tp2534
(Ntp2535
s(g12
g2
I79
g13
tp2536
(Ntp2537
s(g24
g2
I122
g13
tp2538
(Ntp2539
s(g18
g6
I41
g13
tp2540
(Ntp2541
s(g21
g2
I119
g13
tp2542
(Ntp2543
s(g24
g25
I50
g3
tp2544
(Ntp2545
s(g24
g25
I131
g3
tp2546
(Ntp2547
s(g12
g25
I6
g13
tp2548
(Ntp2549
s(g21
g6
I92
g3
tp2550
(Ntp2551
s(g1
g2
I124
g13
tp2552
(Ntp2553
s(g21
g2
I32
g13
tp2554
(Ntp2555
s(g18
g2
I91
g3
tp2556
(Ntp2557
s(g24
g2
I39
g3
tp2558
(Ntp2559
s(g1
g2
I27
g3
tp2560
(Ntp2561
s(g21
g25
I56
g3
tp2562
(Ntp2563
s(g18
g2
I35
g3
tp2564
(Ntp2565
s(g18
g6
I75
g3
tp2566
(Ntp2567
s(g9
g6
I156
g3
tp2568
(Ntp2569
s(g9
g6
I234
g3
tp2570
(Ntp2571
s(g18
g25
I57
g13
tp2572
(Ntp2573
s(g24
g6
I143
g3
tp2574
(Ntp2575
s(g24
g2
I67
g3
tp2576
(Ntp2577
s(g12
g6
I37
g3
tp2578
(Ntp2579
s(g21
g6
I30
g13
tp2580
(Ntp2581
s(g18
g6
I115
g3
tp2582
(Ntp2583
s(g18
g25
I123
g3
tp2584
(Ntp2585
s(g12
g6
I33
g3
tp2586
(Ntp2587
s(g12
g6
I176
g3
tp2588
(Ntp2589
s(g18
g2
I8
g13
tp2590
(Ntp2591
s(g21
g2
I9
g3
tp2592
(Ntp2593
s(g1
g6
I44
g13
tp2594
(Ntp2595
s(g9
g25
I96
g13
tp2596
(Ntp2597
s(g1
g6
I27
g13
tp2598
(Ntp2599
s(g21
g6
I43
g13
tp2600
(Ntp2601
s(g9
g6
I185
g13
tp2602
(Ntp2603
s(g24
g2
I88
g3
tp2604
(Ntp2605
s(g12
g6
I62
g13
tp2606
(Ntp2607
s(g18
g25
I7
g13
tp2608
(Ntp2609
s(g1
g6
I188
g3
tp2610
(Ntp2611
s(g24
g2
I41
g3
tp2612
(Ntp2613
s(g12
g2
I93
g13
tp2614
(Ntp2615
s(g24
g6
I163
g13
tp2616
(Ntp2617
s(g12
g25
I17
g3
tp2618
(Ntp2619
s(g9
g6
I147
g3
tp2620
(Ntp2621
s(g9
g2
I112
g3
tp2622
(Ntp2623
s(g1
g25
I133
g3
tp2624
(Ntp2625
s(g12
g25
I20
g13
tp2626
(Ntp2627
s(g1
g25
I38
g3
tp2628
(Ntp2629
s(g21
g2
I18
g13
tp2630
(Ntp2631
s(g24
g6
I202
g13
tp2632
(Ntp2633
s(g18
g6
I10
g3
tp2634
(Ntp2635
s(g24
g2
I19
g13
tp2636
(Ntp2637
s(g24
g6
I74
g3
tp2638
(Ntp2639
s(g9
g6
I212
g13
tp2640
(Ntp2641
s(g24
g6
I195
g3
tp2642
(Ntp2643
s(g1
g2
I65
g13
tp2644
(Ntp2645
s(g12
g2
I67
g13
tp2646
(Ntp2647
s(g12
g2
I56
g13
tp2648
(Ntp2649
s(g24
g6
I157
g13
tp2650
(Ntp2651
s(g24
g2
I70
g13
tp2652
(Ntp2653
s(g18
g6
I5
g3
tp2654
(Ntp2655
s(g21
g2
I11
g13
tp2656
(Ntp2657
s(g21
g2
I60
g3
tp2658
(Ntp2659
s(g9
g6
I61
g13
tp2660
(Ntp2661
s(g1
g25
I131
g13
tp2662
(Ntp2663
s(g12
g2
I100
g3
tp2664
(Ntp2665
s(g21
g2
I99
g3
tp2666
(Ntp2667
s(g9
g2
I126
g3
tp2668
(Ntp2669
s(g9
g6
I234
g13
tp2670
(Ntp2671
s(g1
g25
I123
g3
tp2672
(Ntp2673
s(g18
g6
I95
g3
tp2674
(Ntp2675
s(g12
g6
I202
g13
tp2676
(Ntp2677
s(g18
g25
I53
g13
tp2678
(Ntp2679
s(g9
g25
I104
g13
tp2680
(Ntp2681
s(g24
g2
I80
g3
tp2682
(Ntp2683
s(g24
g6
I30
g3
tp2684
(Ntp2685
s(g18
g2
I6
g13
tp2686
(Ntp2687
s(g12
g25
I33
g13
tp2688
(Ntp2689
s(g18
g2
I12
g13
tp2690
(Ntp2691
s(g18
g25
I46
g13
tp2692
(Ntp2693
s(g9
g25
I113
g13
tp2694
(Ntp2695
s(g12
g6
I155
g3
tp2696
(Ntp2697
s(g1
g6
I103
g13
tp2698
(Ntp2699
s(g21
g6
I71
g3
tp2700
(Ntp2701
s(g21
g6
I35
g3
tp2702
(Ntp2703
s(g18
g25
I38
g3
tp2704
(Ntp2705
s(g9
g6
I102
g13
tp2706
(Ntp2707
s(g1
g2
I129
g13
tp2708
(Ntp2709
s(g9
g6
I152
g3
tp2710
(Ntp2711
s(g12
g2
I81
g13
tp2712
(Ntp2713
s(g24
g6
I175
g13
tp2714
(Ntp2715
s(g1
g25
I2
g3
tp2716
(Ntp2717
s(g12
g25
I20
g3
tp2718
(Ntp2719
s(g12
g25
I28
g3
tp2720
(Ntp2721
s(g24
g6
I167
g3
tp2722
(Ntp2723
s(g21
g6
I29
g3
tp2724
(Ntp2725
s(g12
g25
I16
g13
tp2726
(Ntp2727
s(g12
g6
I98
g3
tp2728
(Ntp2729
s(g21
g2
I49
g3
tp2730
(Ntp2731
s(g1
g6
I113
g3
tp2732
(Ntp2733
s(g1
g6
I26
g3
tp2734
(Ntp2735
s(g1
g25
I132
g3
tp2736
(Ntp2737
s(g18
g25
I77
g3
tp2738
(Ntp2739
s(g9
g6
I216
g13
tp2740
(Ntp2741
s(g9
g6
I198
g3
tp2742
(Ntp2743
s(g1
g25
I108
g3
tp2744
(Ntp2745
s(g12
g2
I64
g3
tp2746
(Ntp2747
s(g12
g2
I71
g13
tp2748
(Ntp2749
s(g12
g2
I60
g13
tp2750
(Ntp2751
s(g24
g6
I153
g13
tp2752
(Ntp2753
s(g24
g25
I14
g3
tp2754
(Ntp2755
s(g9
g25
I122
g13
tp2756
(Ntp2757
s(g21
g2
I15
g13
tp2758
(Ntp2759
s(g24
g2
I109
g3
tp2760
(Ntp2761
s(g1
g2
I74
g3
tp2762
(Ntp2763
s(g9
g6
I193
g13
tp2764
(Ntp2765
s(g1
g25
I135
g13
tp2766
(Ntp2767
s(g1
g6
I153
g13
tp2768
(Ntp2769
s(g1
g25
I87
g3
tp2770
(Ntp2771
s(g21
g2
I56
g13
tp2772
(Ntp2773
s(g9
g6
I41
g3
tp2774
(Ntp2775
s(g24
g25
I3
g3
tp2776
(Ntp2777
s(g9
g2
I37
g3
tp2778
(Ntp2779
s(g12
g6
I196
g13
tp2780
(Ntp2781
s(g18
g6
I72
g3
tp2782
(Ntp2783
s(g21
g25
I3
g13
tp2784
(Ntp2785
s(g12
g2
I34
g13
tp2786
(Ntp2787
s(g9
g25
I96
g3
tp2788
(Ntp2789
s(g18
g2
I50
g3
tp2790
(Ntp2791
s(g24
g2
I39
g13
tp2792
(Ntp2793
s(g18
g6
I116
g3
tp2794
(Ntp2795
s(g9
g2
I81
g13
tp2796
(Ntp2797
s(g12
g6
I13
g3
tp2798
(Ntp2799
s(g18
g2
I26
g13
tp2800
(Ntp2801
s(g9
g6
I215
g13
tp2802
(Ntp2803
s(g12
g25
I70
g3
tp2804
(Ntp2805
s(g24
g25
I24
g3
tp2806
(Ntp2807
s(g21
g2
I71
g13
tp2808
(Ntp2809
s(g9
g25
I125
g13
tp2810
(Ntp2811
s(g21
g6
I79
g3
tp2812
(Ntp2813
s(g21
g2
I4
g3
tp2814
(Ntp2815
s(g1
g6
I12
g3
tp2816
(Ntp2817
s(g12
g6
I167
g3
tp2818
(Ntp2819
s(g12
g6
I103
g3
tp2820
(Ntp2821
s(g9
g6
I175
g3
tp2822
(Ntp2823
s(g9
g6
I144
g3
tp2824
(Ntp2825
s(g9
g2
I113
g3
tp2826
(Ntp2827
s(g24
g6
I171
g13
tp2828
(Ntp2829
s(g21
g2
I82
g3
tp2830
(Ntp2831
s(g1
g2
I19
g3
tp2832
(Ntp2833
s(g18
g25
I81
g3
tp2834
(Ntp2835
s(g12
g6
I27
g3
tp2836
(Ntp2837
s(g24
g2
I104
g3
tp2838
(Ntp2839
s(g1
g6
I198
g13
tp2840
(Ntp2841
s(g9
g6
I124
g3
tp2842
(Ntp2843
s(g9
g6
I220
g13
tp2844
(Ntp2845
s(g18
g6
I138
g3
tp2846
(Ntp2847
s(g12
g2
I48
g13
tp2848
(Ntp2849
s(g24
g6
I133
g13
tp2850
(Ntp2851
s(g12
g6
I163
g13
tp2852
(Ntp2853
s(g18
g25
I128
g3
tp2854
(Ntp2855
s(g9
g6
I213
g3
tp2856
(Ntp2857
s(g9
g6
I185
g3
tp2858
(Ntp2859
s(g24
g6
I112
g3
tp2860
(Ntp2861
s(g1
g25
I139
g13
tp2862
(Ntp2863
s(g21
g25
I38
g13
tp2864
(Ntp2865
s(g12
g25
I122
g13
tp2866
(Ntp2867
s(g24
g25
I45
g3
tp2868
(Ntp2869
s(g21
g2
I60
g13
tp2870
(Ntp2871
s(g24
g6
I23
g13
tp2872
(Ntp2873
s(g18
g6
I174
g13
tp2874
(Ntp2875
s(g9
g25
I79
g13
tp2876
(Ntp2877
s(g18
g6
I80
g3
tp2878
(Ntp2879
s(g9
g2
I107
g3
tp2880
(Ntp2881
s(g12
g6
I157
g3
tp2882
(Ntp2883
s(g12
g25
I79
g13
tp2884
(Ntp2885
s(g1
g6
I94
g3
tp2886
(Ntp2887
s(g1
g25
I144
g13
tp2888
(Ntp2889
s(g21
g25
I31
g13
tp2890
(Ntp2891
s(g18
g2
I44
g3
tp2892
(Ntp2893
s(g12
g25
I19
g13
tp2894
(Ntp2895
s(g12
g2
I38
g13
tp2896
(Ntp2897
s(g24
g2
I35
g13
tp2898
(Ntp2899
s(g1
g6
I9
g3
tp2900
(Ntp2901
s(g18
g6
I199
g13
tp2902
(Ntp2903
s(g18
g2
I30
g13
tp2904
(Ntp2905
s(g9
g6
I96
g13
tp2906
(Ntp2907
s(g21
g25
I48
g13
tp2908
(Ntp2909
s(g24
g6
I158
g3
tp2910
(Ntp2911
s(g21
g25
I116
g13
tp2912
(Ntp2913
s(g24
g6
I219
g3
tp2914
(Ntp2915
s(g21
g2
I91
g13
tp2916
(Ntp2917
s(g18
g6
I144
g13
tp2918
(Ntp2919
s(g9
g25
I121
g13
tp2920
(Ntp2921
s(g18
g2
I75
g13
tp2922
(Ntp2923
s(g9
g2
I109
g3
tp2924
(Ntp2925
s(g1
g6
I4
g3
tp2926
(Ntp2927
s(g1
g2
I98
g3
tp2928
(Ntp2929
s(g12
g25
I74
g3
tp2930
(Ntp2931
s(g18
g25
I39
g3
tp2932
(Ntp2933
s(g1
g25
I15
g13
tp2934
(Ntp2935
s(g21
g25
I41
g13
tp2936
(Ntp2937
s(g9
g6
I40
g3
tp2938
(Ntp2939
s(g18
g6
I41
g3
tp2940
(Ntp2941
s(g24
g25
I79
g3
tp2942
(Ntp2943
s(g1
g2
I85
g3
tp2944
(Ntp2945
s(g1
g6
I214
g3
tp2946
(Ntp2947
s(g21
g6
I172
g13
tp2948
(Ntp2949
s(g21
g6
I18
g3
tp2950
(Ntp2951
s(g21
g2
I109
g13
tp2952
(Ntp2953
s(g9
g25
I28
g13
tp2954
(Ntp2955
s(g1
g2
I27
g13
tp2956
(Ntp2957
s(g24
g25
I84
g3
tp2958
(Ntp2959
s(g1
g6
I194
g13
tp2960
(Ntp2961
s(g24
g25
I25
g3
tp2962
(Ntp2963
s(g21
g6
I157
g3
tp2964
(Ntp2965
s(g24
g25
I129
g3
tp2966
(Ntp2967
s(g18
g2
I69
g3
tp2968
(Ntp2969
s(g21
g6
I121
g3
tp2970
(Ntp2971
s(g18
g2
I24
g3
tp2972
(Ntp2973
s(g12
g2
I52
g13
tp2974
(Ntp2975
s(g24
g6
I129
g13
tp2976
(Ntp2977
s(g21
g6
I210
g13
tp2978
(Ntp2979
s(g21
g25
I58
g3
tp2980
(Ntp2981
s(g21
g25
I34
g13
tp2982
(Ntp2983
s(g24
g25
I2
g3
tp2984
(Ntp2985
s(g9
g6
I135
g3
tp2986
(Ntp2987
s(g18
g2
I23
g3
tp2988
(Ntp2989
s(g24
g6
I137
g3
tp2990
(Ntp2991
s(g21
g6
I43
g3
tp2992
(Ntp2993
s(g24
g25
I81
g13
tp2994
(Ntp2995
s(g12
g6
I92
g3
tp2996
(Ntp2997
s(g18
g6
I162
g13
tp2998
(Ntp2999
s(g21
g25
I8
g3
tp3000
(Ntp3001
s(g18
g2
I51
g3
tp3002
(Ntp3003
s(g1
g25
I148
g13
tp3004
(Ntp3005
s(g21
g25
I27
g13
tp3006
(Ntp3007
s(g9
g6
I236
g3
tp3008
(Ntp3009
s(g12
g2
I26
g13
tp3010
(Ntp3011
s(g18
g6
I92
g3
tp3012
(Ntp3013
s(g12
g6
I137
g13
tp3014
(Ntp3015
s(g18
g6
I187
g13
tp3016
(Ntp3017
s(g24
g2
I83
g3
tp3018
(Ntp3019
s(g9
g6
I27
g13
tp3020
(Ntp3021
s(g1
g25
I38
g13
tp3022
(Ntp3023
s(g24
g2
I12
g3
tp3024
(Ntp3025
s(g21
g2
I95
g13
tp3026
(Ntp3027
s(g24
g6
I13
g13
tp3028
(Ntp3029
s(g18
g6
I148
g13
tp3030
(Ntp3031
s(g9
g25
I101
g13
tp3032
(Ntp3033
s(g9
g6
I17
g13
tp3034
(Ntp3035
s(g9
g6
I145
g3
tp3036
(Ntp3037
s(g21
g25
I37
g13
tp3038
(Ntp3039
s(g24
g6
I208
g13
tp3040
(Ntp3041
s(g9
g25
I51
g13
tp3042
(Ntp3043
s(g24
g2
I57
g3
tp3044
(Ntp3045
s(g24
g2
I83
g13
tp3046
(Ntp3047
s(g18
g6
I173
g13
tp3048
(Ntp3049
s(g18
g6
I78
g3
tp3050
(Ntp3051
s(g9
g6
I122
g13
tp3052
(Ntp3053
s(g21
g6
I160
g13
tp3054
(Ntp3055
s(g24
g6
I90
g13
tp3056
(Ntp3057
s(g1
g25
I24
g13
tp3058
(Ntp3059
s(g21
g2
I97
g13
tp3060
(Ntp3061
s(g9
g2
I25
g3
tp3062
(Ntp3063
s(g9
g25
I24
g13
tp3064
(Ntp3065
s(g12
g6
I13
g13
tp3066
(Ntp3067
s(g1
g2
I7
g13
tp3068
(Ntp3069
s(g21
g6
I101
g3
tp3070
(Ntp3071
s(g21
g6
I30
g3
tp3072
(Ntp3073
s(g12
g6
I53
g3
tp3074
(Ntp3075
s(g21
g2
I62
g3
tp3076
(Ntp3077
s(g1
g6
I114
g3
tp3078
(Ntp3079
s(g9
g25
I45
g13
tp3080
(Ntp3081
s(g1
g25
I65
g3
tp3082
(Ntp3083
s(g1
g2
I44
g13
tp3084
(Ntp3085
s(g21
g6
I214
g13
tp3086
(Ntp3087
s(g21
g2
I12
g3
tp3088
(Ntp3089
s(g24
g6
I85
g3
tp3090
(Ntp3091
s(g18
g6
I81
g3
tp3092
(Ntp3093
s(g18
g6
I192
g3
tp3094
(Ntp3095
s(g1
g2
I83
g13
tp3096
(Ntp3097
s(g21
g25
I18
g13
tp3098
(Ntp3099
s(g1
g6
I161
g13
tp3100
(Ntp3101
s(g24
g25
I85
g13
tp3102
(Ntp3103
s(g24
g2
I94
g3
tp3104
(Ntp3105
s(g1
g6
I216
g3
tp3106
(Ntp3107
s(g21
g6
I175
g13
tp3108
(Ntp3109
s(g18
g6
I166
g13
tp3110
(Ntp3111
s(g21
g25
I23
g13
tp3112
(Ntp3113
s(g12
g2
I30
g13
tp3114
(Ntp3115
s(g24
g6
I226
g13
tp3116
(Ntp3117
s(g24
g2
I96
g3
tp3118
(Ntp3119
s(g18
g6
I191
g13
tp3120
(Ntp3121
s(g9
g6
I104
g13
tp3122
(Ntp3123
s(g9
g6
I31
g13
tp3124
(Ntp3125
s(g1
g6
I191
g13
tp3126
(Ntp3127
s(g21
g2
I83
g13
tp3128
(Ntp3129
s(g18
g6
I136
g13
tp3130
(Ntp3131
s(g12
g6
I63
g13
tp3132
(Ntp3133
s(g21
g6
I72
g3
tp3134
(Ntp3135
s(g18
g6
I190
g3
tp3136
(Ntp3137
s(g12
g6
I88
g3
tp3138
(Ntp3139
s(g21
g25
I33
g13
tp3140
(Ntp3141
s(g24
g6
I220
g13
tp3142
(Ntp3143
s(g24
g6
I71
g13
tp3144
(Ntp3145
s(g12
g2
I47
g3
tp3146
(Ntp3147
s(g21
g6
I19
g3
tp3148
(Ntp3149
s(g18
g25
I54
g3
tp3150
(Ntp3151
s(g12
g6
I100
g3
tp3152
(Ntp3153
s(g18
g6
I161
g13
tp3154
(Ntp3155
s(g18
g6
I26
g13
tp3156
(Ntp3157
s(g9
g6
I168
g3
tp3158
(Ntp3159
s(g1
g6
I127
g3
tp3160
(Ntp3161
s(g9
g6
I126
g13
tp3162
(Ntp3163
s(g1
g25
I45
g3
tp3164
(Ntp3165
s(g21
g6
I164
g13
tp3166
(Ntp3167
s(g1
g6
I86
g3
tp3168
(Ntp3169
s(g1
g2
I16
g3
tp3170
(Ntp3171
s(g9
g25
I4
g13
tp3172
(Ntp3173
s(g12
g6
I1
g13
tp3174
(Ntp3175
s(g1
g2
I3
g13
tp3176
(Ntp3177
s(g12
g6
I161
g3
tp3178
(Ntp3179
s(g1
g6
I106
g3
tp3180
(Ntp3181
s(g1
g25
I82
g13
tp3182
(Ntp3183
s(g21
g25
I68
g13
tp3184
(Ntp3185
s(g18
g25
I29
g3
tp3186
(Ntp3187
s(g18
g25
I26
g13
tp3188
(Ntp3189
s(g12
g25
I67
g3
tp3190
(Ntp3191
s(g9
g6
I98
g3
tp3192
(Ntp3193
s(g9
g25
I41
g13
tp3194
(Ntp3195
s(g9
g6
I214
g3
tp3196
(Ntp3197
s(g1
g25
I89
g3
tp3198
(Ntp3199
s(g21
g6
I202
g13
tp3200
(Ntp3201
s(g1
g2
I63
g3
tp3202
(Ntp3203
s(g24
g2
I61
g3
tp3204
(Ntp3205
s(g1
g2
I122
g3
tp3206
(Ntp3207
s(g18
g25
I8
g3
tp3208
(Ntp3209
s(g9
g2
I70
g13
tp3210
(Ntp3211
s(g9
g25
I98
g3
tp3212
(Ntp3213
s(g1
g2
I102
g13
tp3214
(Ntp3215
s(g1
g6
I173
g13
tp3216
(Ntp3217
s(g24
g25
I89
g13
tp3218
(Ntp3219
s(g21
g6
I163
g13
tp3220
(Ntp3221
s(g24
g25
I71
g3
tp3222
(Ntp3223
s(g18
g6
I56
g3
tp3224
(Ntp3225
s(g9
g25
I42
g3
tp3226
(Ntp3227
s(g21
g6
I117
g13
tp3228
(Ntp3229
s(g18
g6
I179
g13
tp3230
(Ntp3231
s(g9
g6
I108
g13
tp3232
(Ntp3233
s(g1
g6
I218
g3
tp3234
(Ntp3235
s(g9
g2
I120
g13
tp3236
(Ntp3237
s(g9
g6
I35
g13
tp3238
(Ntp3239
s(g24
g25
I104
g3
tp3240
(Ntp3241
s(g1
g6
I187
g13
tp3242
(Ntp3243
s(g18
g2
I77
g3
tp3244
(Ntp3245
s(g18
g6
I140
g13
tp3246
(Ntp3247
s(g18
g6
I35
g3
tp3248
(Ntp3249
s(g21
g6
I123
g3
tp3250
(Ntp3251
s(g12
g6
I51
g13
tp3252
(Ntp3253
s(g12
g6
I64
g3
tp3254
(Ntp3255
s(g1
g6
I83
g3
tp3256
(Ntp3257
s(g9
g2
I106
g3
tp3258
(Ntp3259
s(g21
g25
I34
g3
tp3260
(Ntp3261
s(g21
g25
I61
g13
tp3262
(Ntp3263
s(g18
g25
I131
g3
tp3264
(Ntp3265
s(g18
g25
I13
g3
tp3266
(Ntp3267
s(g24
g6
I67
g13
tp3268
(Ntp3269
s(g18
g6
I30
g13
tp3270
(Ntp3271
s(g18
g6
I54
g3
tp3272
(Ntp3273
s(g12
g6
I207
g3
tp3274
(Ntp3275
s(g21
g25
I107
g13
tp3276
(Ntp3277
s(g12
g25
I63
g13
tp3278
(Ntp3279
s(g1
g2
I3
g3
tp3280
(Ntp3281
s(g18
g2
I59
g3
tp3282
(Ntp3283
s(g24
g6
I106
g13
tp3284
(Ntp3285
s(g1
g6
I199
g3
tp3286
(Ntp3287
s(g12
g6
I5
g13
tp3288
(Ntp3289
s(g9
g2
I52
g3
tp3290
(Ntp3291
s(g1
g2
I15
g13
tp3292
(Ntp3293
s(g1
g25
I86
g13
tp3294
(Ntp3295
s(g21
g6
I177
g13
tp3296
(Ntp3297
s(g21
g25
I64
g13
tp3298
(Ntp3299
s(g24
g6
I61
g13
tp3300
(Ntp3301
s(g9
g25
I85
g13
tp3302
(Ntp3303
s(g12
g6
I57
g3
tp3304
(Ntp3305
s(g21
g2
I40
g3
tp3306
(Ntp3307
s(g1
g6
I13
g13
tp3308
(Ntp3309
s(g21
g6
I206
g13
tp3310
(Ntp3311
s(g18
g6
I61
g3
tp3312
(Ntp3313
s(g18
g6
I193
g3
tp3314
(Ntp3315
s(g1
g25
I127
g13
tp3316
(Ntp3317
s(g1
g6
I173
g3
tp3318
(Ntp3319
s(g9
g2
I74
g13
tp3320
(Ntp3321
s(g12
g6
I96
g13
tp3322
(Ntp3323
s(g1
g2
I98
g13
tp3324
(Ntp3325
s(g24
g25
I61
g3
tp3326
(Ntp3327
s(g24
g6
I213
g3
tp3328
(Ntp3329
s(g1
g25
I72
g13
tp3330
(Ntp3331
s(g18
g6
I209
g3
tp3332
(Ntp3333
s(g21
g6
I52
g3
tp3334
(Ntp3335
s(g21
g2
I54
g3
tp3336
(Ntp3337
s(g1
g6
I110
g3
tp3338
(Ntp3339
s(g18
g2
I60
g3
tp3340
(Ntp3341
s(g21
g6
I115
g13
tp3342
(Ntp3343
s(g21
g6
I105
g13
tp3344
(Ntp3345
s(g1
g25
I88
g3
tp3346
(Ntp3347
s(g9
g2
I124
g13
tp3348
(Ntp3349
s(g9
g6
I46
g3
tp3350
(Ntp3351
s(g1
g2
I92
g13
tp3352
(Ntp3353
s(g24
g6
I203
g3
tp3354
(Ntp3355
s(g1
g6
I135
g13
tp3356
(Ntp3357
s(g21
g6
I66
g13
tp3358
(Ntp3359
s(g1
g6
I212
g3
tp3360
(Ntp3361
s(g12
g25
I122
g3
tp3362
(Ntp3363
s(g18
g25
I55
g3
tp3364
(Ntp3365
s(g9
g6
I53
g3
tp3366
(Ntp3367
s(g21
g6
I72
g13
tp3368
(Ntp3369
s(g24
g6
I79
g13
tp3370
(Ntp3371
s(g21
g6
I159
g13
tp3372
(Ntp3373
s(g18
g6
I18
g13
tp3374
(Ntp3375
s(g1
g6
I219
g3
tp3376
(Ntp3377
s(g24
g25
I22
g13
tp3378
(Ntp3379
s(g24
g25
I31
g3
tp3380
(Ntp3381
s(g1
g6
I87
g3
tp3382
(Ntp3383
s(g21
g6
I147
g3
tp3384
(Ntp3385
s(g21
g6
I2
g3
tp3386
(Ntp3387
s(g9
g6
I66
g13
tp3388
(Ntp3389
s(g1
g6
I73
g13
tp3390
(Ntp3391
s(g24
g6
I86
g13
tp3392
(Ntp3393
s(g12
g6
I25
g13
tp3394
(Ntp3395
s(g24
g25
I100
g3
tp3396
(Ntp3397
s(g9
g6
I99
g3
tp3398
(Ntp3399
s(g1
g25
I53
g3
tp3400
(Ntp3401
s(g1
g25
I90
g13
tp3402
(Ntp3403
s(g21
g25
I92
g13
tp3404
(Ntp3405
s(g18
g6
I173
g3
tp3406
(Ntp3407
s(g24
g6
I57
g13
tp3408
(Ntp3409
s(g1
g6
I129
g3
tp3410
(Ntp3411
s(g1
g2
I94
g3
tp3412
(Ntp3413
s(g18
g2
I21
g3
tp3414
(Ntp3415
s(g18
g6
I4
g13
tp3416
(Ntp3417
s(g21
g6
I41
g3
tp3418
(Ntp3419
s(g12
g6
I94
g3
tp3420
(Ntp3421
s(g24
g6
I118
g3
tp3422
(Ntp3423
s(g1
g25
I99
g13
tp3424
(Ntp3425
s(g9
g2
I78
g13
tp3426
(Ntp3427
s(g18
g6
I209
g13
tp3428
(Ntp3429
s(g12
g6
I100
g13
tp3430
(Ntp3431
s(g1
g25
I19
g3
tp3432
(Ntp3433
s(g1
g2
I110
g13
tp3434
(Ntp3435
s(g21
g6
I60
g3
tp3436
(Ntp3437
s(g12
g6
I108
g3
tp3438
(Ntp3439
s(g1
g25
I76
g13
tp3440
(Ntp3441
s(g24
g25
I29
g13
tp3442
(Ntp3443
s(g24
g2
I81
g3
tp3444
(Ntp3445
s(g9
g25
I116
g3
tp3446
(Ntp3447
s(g18
g25
I108
g13
tp3448
(Ntp3449
s(g1
g2
I51
g13
tp3450
(Ntp3451
s(g1
g2
I119
g13
tp3452
(Ntp3453
s(g21
g6
I109
g13
tp3454
(Ntp3455
s(g24
g2
I99
g3
tp3456
(Ntp3457
s(g18
g25
I65
g13
tp3458
(Ntp3459
s(g9
g2
I96
g13
tp3460
(Ntp3461
s(g21
g6
I175
g3
tp3462
(Ntp3463
s(g12
g6
I65
g3
tp3464
(Ntp3465
s(g1
g2
I88
g13
tp3466
(Ntp3467
s(g12
g6
I208
g3
tp3468
(Ntp3469
s(g21
g6
I70
g13
tp3470
(Ntp3471
s(g24
g25
I115
g13
tp3472
(Ntp3473
s(g1
g6
I68
g13
tp3474
(Ntp3475
s(g24
g6
I75
g13
tp3476
(Ntp3477
s(g21
g6
I147
g13
tp3478
(Ntp3479
s(g9
g25
I122
g3
tp3480
(Ntp3481
s(g12
g2
I40
g3
tp3482
(Ntp3483
s(g18
g6
I22
g13
tp3484
(Ntp3485
s(g24
g25
I26
g13
tp3486
(Ntp3487
s(g9
g2
I31
g13
tp3488
(Ntp3489
s(g12
g6
I10
g3
tp3490
(Ntp3491
s(g9
g6
I70
g13
tp3492
(Ntp3493
s(g9
g2
I80
g3
tp3494
(Ntp3495
s(g1
g25
I70
g3
tp3496
(Ntp3497
s(g12
g6
I5
g3
tp3498
(Ntp3499
s(g12
g6
I58
g3
tp3500
(Ntp3501
s(g1
g25
I94
g13
tp3502
(Ntp3503
s(g21
g2
I41
g3
tp3504
(Ntp3505
s(g12
g6
I174
g3
tp3506
(Ntp3507
s(g24
g6
I106
g3
tp3508
(Ntp3509
s(g24
g6
I37
g13
tp3510
(Ntp3511
s(g12
g6
I67
g13
tp3512
(Ntp3513
s(g9
g6
I165
g3
tp3514
(Ntp3515
s(g1
g25
I49
g3
tp3516
(Ntp3517
s(g1
g25
I116
g3
tp3518
(Ntp3519
s(g24
g6
I212
g3
tp3520
(Ntp3521
s(g18
g6
I78
g13
tp3522
(Ntp3523
s(g12
g2
I4
g3
tp3524
(Ntp3525
s(g12
g6
I120
g13
tp3526
(Ntp3527
s(g1
g2
I106
g13
tp3528
(Ntp3529
s(g1
g6
I45
g3
tp3530
(Ntp3531
s(g9
g2
I94
g3
tp3532
(Ntp3533
s(g1
g25
I48
g13
tp3534
(Ntp3535
s(g12
g6
I85
g13
tp3536
(Ntp3537
s(g18
g25
I104
g13
tp3538
(Ntp3539
s(g1
g2
I63
g13
tp3540
(Ntp3541
s(g18
g6
I103
g13
tp3542
(Ntp3543
s(g12
g6
I19
g3
tp3544
(Ntp3545
s(g21
g6
I97
g13
tp3546
(Ntp3547
s(g18
g2
I42
g3
tp3548
(Ntp3549
s(g18
g6
I23
g3
tp3550
(Ntp3551
s(g24
g25
I8
g13
tp3552
(Ntp3553
s(g18
g6
I155
g3
tp3554
(Ntp3555
s(g18
g25
I93
g13
tp3556
(Ntp3557
s(g9
g2
I100
g13
tp3558
(Ntp3559
s(g18
g6
I48
g13
tp3560
(Ntp3561
s(g1
g2
I68
g13
tp3562
(Ntp3563
s(g21
g6
I190
g13
tp3564
(Ntp3565
s(g12
g25
I94
g3
tp3566
(Ntp3567
s(g21
g6
I122
g13
tp3568
(Ntp3569
s(g9
g6
I174
g3
tp3570
(Ntp3571
s(g24
g25
I119
g13
tp3572
(Ntp3573
s(g1
g25
I47
g3
tp3574
(Ntp3575
s(g21
g6
I39
g3
tp3576
(Ntp3577
s(g18
g6
I201
g3
tp3578
(Ntp3579
s(g12
g6
I40
g3
tp3580
(Ntp3581
s(g18
g25
I118
g13
tp3582
(Ntp3583
s(g1
g6
I64
g13
tp3584
(Ntp3585
s(g24
g25
I123
g3
tp3586
(Ntp3587
s(g1
g6
I84
g3
tp3588
(Ntp3589
s(g21
g6
I151
g13
tp3590
(Ntp3591
s(g21
g6
I12
g13
tp3592
(Ntp3593
s(g21
g6
I3
g3
tp3594
(Ntp3595
s(g24
g2
I89
g13
tp3596
(Ntp3597
s(g9
g25
I33
g3
tp3598
(Ntp3599
s(g24
g25
I30
g13
tp3600
(Ntp3601
s(g1
g25
I34
g3
tp3602
(Ntp3603
s(g9
g2
I3
g13
tp3604
(Ntp3605
s(g21
g2
I53
g3
tp3606
(Ntp3607
s(g9
g6
I212
g3
tp3608
(Ntp3609
s(g18
g2
I36
g3
tp3610
(Ntp3611
s(g18
g25
I73
g3
tp3612
(Ntp3613
s(g9
g2
I44
g13
tp3614
(Ntp3615
s(g1
g6
I17
g3
tp3616
(Ntp3617
s(g1
g6
I58
g3
tp3618
(Ntp3619
s(g21
g2
I124
g3
tp3620
(Ntp3621
s(g1
g6
I94
g13
tp3622
(Ntp3623
s(g12
g25
I80
g3
tp3624
(Ntp3625
s(g18
g25
I109
g3
tp3626
(Ntp3627
s(g9
g6
I227
g3
tp3628
(Ntp3629
s(g21
g6
I50
g13
tp3630
(Ntp3631
s(g21
g25
I19
g3
tp3632
(Ntp3633
s(g9
g6
I38
g3
tp3634
(Ntp3635
s(g9
g6
I176
g13
tp3636
(Ntp3637
s(g12
g6
I38
g3
tp3638
(Ntp3639
s(g24
g25
I46
g3
tp3640
(Ntp3641
s(g1
g6
I1
g3
tp3642
(Ntp3643
s(g24
g25
I69
g3
tp3644
(Ntp3645
s(g1
g2
I106
g3
tp3646
(Ntp3647
s(g24
g6
I19
g3
tp3648
(Ntp3649
s(g18
g6
I58
g3
tp3650
(Ntp3651
s(g18
g25
I63
g3
tp3652
(Ntp3653
s(g18
g6
I66
g13
tp3654
(Ntp3655
s(g12
g6
I124
g13
tp3656
(Ntp3657
s(g18
g2
I47
g3
tp3658
(Ntp3659
s(g24
g25
I82
g3
tp3660
(Ntp3661
s(g1
g25
I52
g13
tp3662
(Ntp3663
s(g9
g6
I9
g3
tp3664
(Ntp3665
s(g9
g2
I5
g3
tp3666
(Ntp3667
s(g21
g25
I69
g3
tp3668
(Ntp3669
s(g1
g25
I147
g3
tp3670
(Ntp3671
s(g18
g6
I104
g3
tp3672
(Ntp3673
s(g18
g6
I135
g3
tp3674
(Ntp3675
s(g12
g6
I41
g13
tp3676
(Ntp3677
s(g18
g25
I100
g13
tp3678
(Ntp3679
s(g24
g2
I8
g13
tp3680
(Ntp3681
s(g18
g6
I91
g13
tp3682
(Ntp3683
s(g24
g2
I71
g3
tp3684
(Ntp3685
s(g18
g2
I67
g3
tp3686
(Ntp3687
s(g12
g6
I45
g3
tp3688
(Ntp3689
s(g18
g25
I89
g13
tp3690
(Ntp3691
s(g18
g6
I52
g13
tp3692
(Ntp3693
s(g1
g2
I64
g13
tp3694
(Ntp3695
s(g24
g25
I56
g3
tp3696
(Ntp3697
s(g18
g6
I19
g3
tp3698
(Ntp3699
s(g12
g6
I193
g3
tp3700
(Ntp3701
s(g9
g2
I62
g13
tp3702
(Ntp3703
s(g1
g6
I44
g3
tp3704
(Ntp3705
s(g1
g2
I13
g3
tp3706
(Ntp3707
s(g24
g2
I89
g3
tp3708
(Ntp3709
s(g18
g2
I57
g3
tp3710
(Ntp3711
s(g1
g6
I76
g13
tp3712
(Ntp3713
s(g18
g6
I77
g13
tp3714
(Ntp3715
s(g21
g6
I139
g13
tp3716
(Ntp3717
s(g9
g6
I143
g3
tp3718
(Ntp3719
s(g24
g25
I98
g13
tp3720
(Ntp3721
s(g9
g2
I7
g13
tp3722
(Ntp3723
s(g24
g2
I73
g3
tp3724
(Ntp3725
s(g21
g6
I197
g3
tp3726
(Ntp3727
s(g12
g6
I59
g3
tp3728
(Ntp3729
s(g12
g6
I138
g3
tp3730
(Ntp3731
s(g21
g6
I25
g13
tp3732
(Ntp3733
s(g9
g2
I80
g13
tp3734
(Ntp3735
s(g9
g6
I92
g3
tp3736
(Ntp3737
s(g12
g6
I142
g3
tp3738
(Ntp3739
s(g21
g6
I54
g13
tp3740
(Ntp3741
s(g18
g6
I170
g3
tp3742
(Ntp3743
s(g1
g6
I130
g3
tp3744
(Ntp3745
s(g9
g2
I57
g13
tp3746
(Ntp3747
s(g24
g6
I43
g13
tp3748
(Ntp3749
s(g12
g2
I88
g13
tp3750
(Ntp3751
s(g21
g6
I15
g13
tp3752
(Ntp3753
s(g18
g6
I70
g13
tp3754
(Ntp3755
s(g24
g25
I42
g13
tp3756
(Ntp3757
s(g9
g6
I157
g13
tp3758
(Ntp3759
s(g24
g6
I145
g3
tp3760
(Ntp3761
s(g18
g6
I4
g3
tp3762
(Ntp3763
s(g12
g6
I189
g3
tp3764
(Ntp3765
s(g24
g6
I60
g3
tp3766
(Ntp3767
s(g18
g25
I96
g13
tp3768
(Ntp3769
s(g24
g2
I20
g13
tp3770
(Ntp3771
s(g18
g6
I95
g13
tp3772
(Ntp3773
s(g1
g25
I94
g3
tp3774
(Ntp3775
s(g18
g25
I85
g13
tp3776
(Ntp3777
s(g24
g2
I123
g13
tp3778
(Ntp3779
s(g18
g6
I40
g13
tp3780
(Ntp3781
s(g24
g6
I190
g3
tp3782
(Ntp3783
s(g9
g2
I23
g3
tp3784
(Ntp3785
s(g12
g25
I65
g13
tp3786
(Ntp3787
s(g21
g6
I168
g3
tp3788
(Ntp3789
s(g1
g6
I85
g3
tp3790
(Ntp3791
s(g18
g25
I78
g13
tp3792
(Ntp3793
s(g24
g2
I98
g13
tp3794
(Ntp3795
s(g18
g6
I65
g13
tp3796
(Ntp3797
s(g12
g25
I54
g3
tp3798
(Ntp3799
s(g21
g6
I4
g13
tp3800
(Ntp3801
s(g24
g25
I111
g3
tp3802
(Ntp3803
s(g18
g25
I56
g13
tp3804
(Ntp3805
s(g9
g2
I11
g13
tp3806
(Ntp3807
s(g18
g2
I69
g13
tp3808
(Ntp3809
s(g21
g6
I70
g3
tp3810
(Ntp3811
s(g21
g6
I29
g13
tp3812
(Ntp3813
s(g9
g2
I84
g13
tp3814
(Ntp3815
s(g9
g6
I194
g3
tp3816
(Ntp3817
s(g21
g6
I125
g3
tp3818
(Ntp3819
s(g1
g6
I26
g13
tp3820
(Ntp3821
s(g21
g6
I42
g13
tp3822
(Ntp3823
s(g18
g2
I101
g3
tp3824
(Ntp3825
s(g21
g6
I89
g3
tp3826
(Ntp3827
s(g9
g6
I184
g13
tp3828
(Ntp3829
s(g18
g25
I3
g3
tp3830
(Ntp3831
s(g18
g25
I6
g13
tp3832
(Ntp3833
s(g9
g25
I75
g3
tp3834
(Ntp3835
s(g9
g6
I166
g3
tp3836
(Ntp3837
s(g1
g25
I12
g3
tp3838
(Ntp3839
s(g12
g2
I92
g13
tp3840
(Ntp3841
s(g24
g2
I105
g13
tp3842
(Ntp3843
s(g21
g6
I3
g13
tp3844
(Ntp3845
s(g24
g25
I46
g13
tp3846
(Ntp3847
s(g24
g6
I116
g13
tp3848
(Ntp3849
s(g18
g2
I55
g3
tp3850
(Ntp3851
s(g18
g2
I84
g13
tp3852
(Ntp3853
s(g21
g6
I11
g3
tp3854
(Ntp3855
s(g12
g6
I124
g3
tp3856
(Ntp3857
s(g21
g25
I46
g13
tp3858
(Ntp3859
s(g1
g6
I57
g13
tp3860
(Ntp3861
s(g24
g2
I70
g3
tp3862
(Ntp3863
s(g24
g2
I16
g13
tp3864
(Ntp3865
s(g9
g25
I29
g3
tp3866
(Ntp3867
s(g9
g6
I204
g3
tp3868
(Ntp3869
s(g12
g25
I2
g13
tp3870
(Ntp3871
s(g12
g2
I66
g13
tp3872
(Ntp3873
s(g24
g2
I71
g13
tp3874
(Ntp3875
s(g21
g2
I10
g13
tp3876
(Ntp3877
s(g9
g6
I183
g13
tp3878
(Ntp3879
s(g12
g2
I21
g3
tp3880
(Ntp3881
s(g1
g6
I211
g3
tp3882
(Ntp3883
s(g9
g2
I47
g3
tp3884
(Ntp3885
s(g21
g2
I39
g13
tp3886
(Ntp3887
s(g24
g2
I110
g13
tp3888
(Ntp3889
s(g18
g6
I66
g3
tp3890
(Ntp3891
s(g18
g6
I69
g13
tp3892
(Ntp3893
s(g18
g6
I214
g3
tp3894
(Ntp3895
s(g21
g2
I36
g13
tp3896
(Ntp3897
s(g1
g6
I8
g13
tp3898
(Ntp3899
s(g1
g2
I112
g3
tp3900
(Ntp3901
s(g18
g6
I110
g3
tp3902
(Ntp3903
s(g18
g25
I46
g3
tp3904
(Ntp3905
s(g12
g6
I7
g3
tp3906
(Ntp3907
s(g12
g6
I139
g3
tp3908
(Ntp3909
s(g18
g25
I52
g13
tp3910
(Ntp3911
s(g21
g2
I50
g3
tp3912
(Ntp3913
s(g21
g6
I17
g13
tp3914
(Ntp3915
s(g1
g25
I51
g3
tp3916
(Ntp3917
s(g1
g25
I118
g3
tp3918
(Ntp3919
s(g12
g6
I85
g3
tp3920
(Ntp3921
s(g18
g25
I45
g13
tp3922
(Ntp3923
s(g1
g6
I18
g3
tp3924
(Ntp3925
s(g1
g6
I102
g13
tp3926
(Ntp3927
s(g21
g6
I46
g13
tp3928
(Ntp3929
s(g18
g25
I132
g3
tp3930
(Ntp3931
s(g9
g6
I181
g3
tp3932
(Ntp3933
s(g12
g6
I150
g13
tp3934
(Ntp3935
s(g1
g25
I97
g3
tp3936
(Ntp3937
s(g9
g2
I123
g3
tp3938
(Ntp3939
s(g9
g2
I33
g13
tp3940
(Ntp3941
s(g24
g25
I41
g3
tp3942
(Ntp3943
s(g21
g2
I108
g3
tp3944
(Ntp3945
s(g12
g2
I80
g13
tp3946
(Ntp3947
s(g24
g2
I90
g3
tp3948
(Ntp3949
s(g21
g6
I7
g13
tp3950
(Ntp3951
s(g18
g25
I32
g3
tp3952
(Ntp3953
s(g24
g25
I50
g13
tp3954
(Ntp3955
s(g18
g2
I40
g3
tp3956
(Ntp3957
s(g18
g25
I59
g13
tp3958
(Ntp3959
s(g1
g6
I5
g13
tp3960
(Ntp3961
s(g21
g25
I74
g3
tp3962
(Ntp3963
s(g24
g6
I183
g13
tp3964
(Ntp3965
s(g12
g25
I97
g3
tp3966
(Ntp3967
s(g24
g2
I28
g13
tp3968
(Ntp3969
s(g18
g6
I132
g3
tp3970
(Ntp3971
s(g1
g6
I175
g13
tp3972
(Ntp3973
s(g24
g6
I223
g3
tp3974
(Ntp3975
s(g12
g2
I70
g13
tp3976
(Ntp3977
s(g18
g6
I203
g3
tp3978
(Ntp3979
s(g24
g6
I154
g13
tp3980
(Ntp3981
s(g24
g2
I67
g13
tp3982
(Ntp3983
s(g21
g2
I14
g13
tp3984
(Ntp3985
s(g9
g6
I192
g13
tp3986
(Ntp3987
s(g18
g25
I43
g3
tp3988
(Ntp3989
s(g1
g25
I31
g3
tp3990
(Ntp3991
s(g12
g25
I55
g3
tp3992
(Ntp3993
s(g21
g2
I59
g13
tp3994
(Ntp3995
s(g12
g6
I120
g3
tp3996
(Ntp3997
s(g12
g6
I151
g3
tp3998
(Ntp3999
s(g9
g25
I66
g13
tp4000
(Ntp4001
s(g1
g6
I123
g3
tp4002
(Ntp4003
s(g1
g2
I2
g3
tp4004
(Ntp4005
s(g18
g2
I1
g3
tp4006
(Ntp4007
s(g18
g25
I71
g3
tp4008
(Ntp4009
s(g21
g2
I29
g13
tp4010
(Ntp4011
s(g9
g6
I136
g3
tp4012
(Ntp4013
s(g1
g6
I31
g3
tp4014
(Ntp4015
s(g18
g25
I48
g13
tp4016
(Ntp4017
s(g21
g2
I16
g13
tp4018
(Ntp4019
s(g18
g2
I25
g13
tp4020
(Ntp4021
s(g12
g25
I28
g13
tp4022
(Ntp4023
s(g1
g2
I48
g3
tp4024
(Ntp4025
s(g12
g25
I107
g13
tp4026
(Ntp4027
s(g21
g6
I198
g3
tp4028
(Ntp4029
s(g18
g25
I41
g13
tp4030
(Ntp4031
s(g9
g25
I124
g13
tp4032
(Ntp4033
s(g18
g25
I61
g3
tp4034
(Ntp4035
s(g1
g6
I98
g13
tp4036
(Ntp4037
s(g9
g6
I54
g3
tp4038
(Ntp4039
s(g1
g6
I9
g13
tp4040
(Ntp4041
s(g24
g25
I85
g3
tp4042
(Ntp4043
s(g18
g2
I56
g13
tp4044
(Ntp4045
s(g9
g25
I110
g3
tp4046
(Ntp4047
s(g24
g6
I141
g3
tp4048
(Ntp4049
s(g18
g6
I85
g3
tp4050
(Ntp4051
s(g18
g2
I111
g13
tp4052
(Ntp4053
s(g12
g2
I84
g13
tp4054
(Ntp4055
s(g21
g6
I156
g3
tp4056
(Ntp4057
s(g1
g6
I11
g13
tp4058
(Ntp4059
s(g21
g25
I12
g3
tp4060
(Ntp4061
s(g18
g25
I55
g13
tp4062
(Ntp4063
s(g24
g25
I103
g3
tp4064
(Ntp4065
s(g21
g6
I139
g3
tp4066
(Ntp4067
s(g18
g6
I88
g3
tp4068
(Ntp4069
s(g24
g6
I126
g13
tp4070
(Ntp4071
s(g24
g6
I179
g13
tp4072
(Ntp4073
s(g18
g2
I83
g3
tp4074
(Ntp4075
s(g18
g2
I22
g3
tp4076
(Ntp4077
s(g24
g2
I46
g3
tp4078
(Ntp4079
s(g24
g6
I134
g13
tp4080
(Ntp4081
s(g9
g25
I82
g13
tp4082
(Ntp4083
s(g21
g2
I2
g13
tp4084
(Ntp4085
s(g9
g6
I141
g3
tp4086
(Ntp4087
s(g9
g6
I196
g13
tp4088
(Ntp4089
s(g1
g25
I138
g13
tp4090
(Ntp4091
s(g18
g2
I109
g3
tp4092
(Ntp4093
s(g18
g6
I67
g3
tp4094
(Ntp4095
s(g12
g25
I121
g13
tp4096
(Ntp4097
s(g12
g6
I20
g3
tp4098
(Ntp4099
s(g18
g6
I177
g13
tp4100
(Ntp4101
s(g21
g2
I63
g13
tp4102
(Ntp4103
s(g21
g25
I2
g3
tp4104
(Ntp4105
s(g24
g2
I118
g13
tp4106
(Ntp4107
s(g9
g25
I78
g13
tp4108
(Ntp4109
s(g18
g6
I121
g13
tp4110
(Ntp4111
s(g1
g25
I147
g13
tp4112
(Ntp4113
s(g21
g25
I30
g13
tp4114
(Ntp4115
s(g12
g25
I18
g13
tp4116
(Ntp4117
s(g12
g2
I37
g13
tp4118
(Ntp4119
s(g24
g2
I32
g13
tp4120
(Ntp4121
s(g21
g2
I20
g13
tp4122
(Ntp4123
s(g21
g6
I26
g3
tp4124
(Ntp4125
s(g18
g2
I29
g13
tp4126
(Ntp4127
s(g9
g6
I218
g13
tp4128
(Ntp4129
s(g12
g25
I24
g13
tp4130
(Ntp4131
s(g12
g25
I103
g13
tp4132
(Ntp4133
s(g12
g2
I99
g3
tp4134
(Ntp4135
s(g21
g2
I90
g13
tp4136
(Ntp4137
s(g18
g25
I37
g13
tp4138
(Ntp4139
s(g9
g25
I120
g13
tp4140
(Ntp4141
s(g1
g25
I93
g3
tp4142
(Ntp4143
s(g12
g6
I173
g13
tp4144
(Ntp4145
s(g1
g25
I133
g13
tp4146
(Ntp4147
s(g21
g2
I8
g3
tp4148
(Ntp4149
s(g24
g2
I62
g13
tp4150
(Ntp4151
s(g18
g6
I93
g3
tp4152
(Ntp4153
s(g18
g2
I60
g13
tp4154
(Ntp4155
s(g18
g2
I99
g13
tp4156
(Ntp4157
s(g1
g6
I23
g13
tp4158
(Ntp4159
s(g24
g6
I129
g3
tp4160
(Ntp4161
s(g9
g6
I233
g13
tp4162
(Ntp4163
s(g21
g6
I20
g3
tp4164
(Ntp4165
s(g12
g6
I179
g3
tp4166
(Ntp4167
s(g1
g6
I193
g13
tp4168
(Ntp4169
s(g1
g6
I120
g3
tp4170
(Ntp4171
s(g1
g6
I14
g3
tp4172
(Ntp4173
s(g9
g25
I18
g3
tp4174
(Ntp4175
s(g1
g25
I75
g3
tp4176
(Ntp4177
s(g9
g2
I89
g13
tp4178
(Ntp4179
s(g24
g6
I130
g13
tp4180
(Ntp4181
s(g21
g2
I6
g13
tp4182
(Ntp4183
s(g9
g6
I200
g13
tp4184
(Ntp4185
s(g18
g2
I37
g13
tp4186
(Ntp4187
s(g12
g25
I117
g13
tp4188
(Ntp4189
s(g21
g6
I31
g3
tp4190
(Ntp4191
s(g21
g2
I51
g13
tp4192
(Ntp4193
s(g9
g25
I74
g13
tp4194
(Ntp4195
s(g9
g2
I21
g13
tp4196
(Ntp4197
s(g1
g25
I151
g13
tp4198
(Ntp4199
s(g21
g25
I26
g13
tp4200
(Ntp4201
s(g12
g25
I14
g13
tp4202
(Ntp4203
s(g12
g2
I25
g13
tp4204
(Ntp4205
s(g1
g2
I20
g3
tp4206
(Ntp4207
s(g12
g2
I79
g3
tp4208
(Ntp4209
s(g24
g2
I44
g13
tp4210
(Ntp4211
s(g12
g6
I136
g13
tp4212
(Ntp4213
s(g18
g6
I186
g13
tp4214
(Ntp4215
s(g18
g2
I17
g13
tp4216
(Ntp4217
s(g9
g6
I222
g13
tp4218
(Ntp4219
s(g18
g25
I1
g3
tp4220
(Ntp4221
s(g21
g25
I115
g13
tp4222
(Ntp4223
s(g24
g25
I4
g3
tp4224
(Ntp4225
s(g1
g25
I85
g3
tp4226
(Ntp4227
s(g21
g2
I94
g13
tp4228
(Ntp4229
s(g12
g25
I13
g3
tp4230
(Ntp4231
s(g18
g6
I151
g13
tp4232
(Ntp4233
s(g9
g25
I100
g13
tp4234
(Ntp4235
s(g12
g6
I161
g13
tp4236
(Ntp4237
s(g9
g6
I16
g13
tp4238
(Ntp4239
s(g12
g6
I82
g3
tp4240
(Ntp4241
s(g12
g6
I198
g3
tp4242
(Ntp4243
s(g1
g25
I137
g13
tp4244
(Ntp4245
s(g21
g25
I36
g13
tp4246
(Ntp4247
s(g18
g2
I53
g3
tp4248
(Ntp4249
s(g21
g6
I9
g3
tp4250
(Ntp4251
s(g12
g6
I126
g3
tp4252
(Ntp4253
s(g24
g2
I58
g13
tp4254
(Ntp4255
s(g9
g6
I182
g3
tp4256
(Ntp4257
s(g1
g25
I23
g3
tp4258
(Ntp4259
s(g18
g2
I103
g13
tp4260
(Ntp4261
s(g9
g6
I233
g3
tp4262
(Ntp4263
s(g24
g25
I67
g3
tp4264
(Ntp4265
s(g24
g2
I93
g3
tp4266
(Ntp4267
s(g1
g2
I26
g3
tp4268
(Ntp4269
s(g21
g2
I96
g13
tp4270
(Ntp4271
s(g18
g25
I132
g13
tp4272
(Ntp4273
s(g9
g25
I27
g13
tp4274
(Ntp4275
s(g1
g2
I6
g13
tp4276
(Ntp4277
s(g1
g6
I205
g13
tp4278
(Ntp4279
s(g18
g2
I114
g3
tp4280
(Ntp4281
s(g18
g2
I11
g13
tp4282
(Ntp4283
s(g9
g6
I220
g3
tp4284
(Ntp4285
s(g24
g2
I3
g3
tp4286
(Ntp4287
s(g24
g6
I142
g13
tp4288
(Ntp4289
s(g21
g6
I213
g13
tp4290
(Ntp4291
s(g18
g6
I47
g3
tp4292
(Ntp4293
s(g21
g2
I93
g3
tp4294
(Ntp4295
s(g21
g25
I38
g3
tp4296
(Ntp4297
s(g9
g6
I131
g13
tp4298
(Ntp4299
s(g18
g25
I44
g3
tp4300
(Ntp4301
s(g1
g6
I219
g13
tp4302
(Ntp4303
s(g24
g25
I77
g3
tp4304
(Ntp4305
s(g12
g25
I56
g3
tp4306
(Ntp4307
s(g18
g6
I50
g3
tp4308
(Ntp4309
s(g12
g2
I23
g13
tp4310
(Ntp4311
s(g12
g6
I211
g13
tp4312
(Ntp4313
s(g24
g25
I130
g13
tp4314
(Ntp4315
s(g12
g6
I148
g3
tp4316
(Ntp4317
s(g1
g6
I124
g3
tp4318
(Ntp4319
s(g21
g25
I22
g13
tp4320
(Ntp4321
s(g18
g6
I121
g3
tp4322
(Ntp4323
s(g18
g2
I76
g3
tp4324
(Ntp4325
s(g12
g2
I29
g13
tp4326
(Ntp4327
s(g24
g6
I227
g13
tp4328
(Ntp4329
s(g1
g6
I16
g3
tp4330
(Ntp4331
s(g9
g2
I48
g3
tp4332
(Ntp4333
s(g18
g6
I190
g13
tp4334
(Ntp4335
s(g18
g25
I130
g3
tp4336
(Ntp4337
s(g21
g2
I22
g13
tp4338
(Ntp4339
s(g1
g25
I129
g3
tp4340
(Ntp4341
s(g9
g6
I187
g3
tp4342
(Ntp4343
s(g12
g25
I95
g13
tp4344
(Ntp4345
s(g21
g25
I15
g13
tp4346
(Ntp4347
s(g1
g25
I102
g3
tp4348
(Ntp4349
s(g12
g2
I78
g3
tp4350
(Ntp4351
s(g21
g2
I82
g13
tp4352
(Ntp4353
s(g24
g6
I10
g13
tp4354
(Ntp4355
s(g18
g6
I139
g13
tp4356
(Ntp4357
s(g12
g6
I206
g3
tp4358
(Ntp4359
s(g12
g6
I165
g13
tp4360
(Ntp4361
s(g1
g6
I34
g3
tp4362
(Ntp4363
s(g18
g25
I5
g3
tp4364
(Ntp4365
s(g1
g25
I141
g13
tp4366
(Ntp4367
s(g21
g25
I32
g13
tp4368
(Ntp4369
s(g9
g6
I133
g3
tp4370
(Ntp4371
s(g1
g25
I81
g3
tp4372
(Ntp4373
s(g24
g6
I221
g13
tp4374
(Ntp4375
s(g24
g2
I6
g13
tp4376
(Ntp4377
s(g21
g2
I75
g13
tp4378
(Ntp4379
s(g18
g6
I160
g13
tp4380
(Ntp4381
s(g9
g6
I125
g13
tp4382
(Ntp4383
s(g21
g6
I48
g3
tp4384
(Ntp4385
s(g18
g6
I16
g3
tp4386
(Ntp4387
s(g1
g25
I31
g13
tp4388
(Ntp4389
s(g1
g6
I205
g3
tp4390
(Ntp4391
s(g24
g6
I64
g3
tp4392
(Ntp4393
s(g18
g25
I128
g13
tp4394
(Ntp4395
s(g9
g25
I7
g13
tp4396
(Ntp4397
s(g1
g2
I2
g13
tp4398
(Ntp4399
s(g18
g6
I159
g3
tp4400
(Ntp4401
s(g21
g2
I93
g13
tp4402
(Ntp4403
s(g18
g6
I55
g3
tp4404
(Ntp4405
s(g18
g6
I187
g3
tp4406
(Ntp4407
s(g1
g2
I43
g13
tp4408
(Ntp4409
s(g21
g6
I201
g13
tp4410
(Ntp4411
s(g9
g25
I49
g13
tp4412
(Ntp4413
s(g9
g6
I142
g3
tp4414
(Ntp4415
s(g1
g6
I39
g13
tp4416
(Ntp4417
s(g21
g6
I7
g3
tp4418
(Ntp4419
s(g12
g6
I72
g3
tp4420
(Ntp4421
s(g21
g6
I162
g13
tp4422
(Ntp4423
s(g12
g2
I11
g13
tp4424
(Ntp4425
s(g24
g25
I27
g3
tp4426
(Ntp4427
s(g1
g6
I75
g3
tp4428
(Ntp4429
s(g1
g6
I116
g3
tp4430
(Ntp4431
s(g1
g2
I21
g3
tp4432
(Ntp4433
s(g21
g6
I159
g3
tp4434
(Ntp4435
s(g18
g25
I87
g3
tp4436
(Ntp4437
s(g18
g25
I18
g3
tp4438
(Ntp4439
s(g9
g25
I1
g3
tp4440
(Ntp4441
s(g9
g6
I216
g3
tp4442
(Ntp4443
s(g18
g6
I178
g13
tp4444
(Ntp4445
s(g9
g6
I52
g3
tp4446
(Ntp4447
s(g12
g2
I3
g13
tp4448
(Ntp4449
s(g9
g6
I34
g13
tp4450
(Ntp4451
s(g18
g25
I105
g3
tp4452
(Ntp4453
s(g21
g2
I86
g13
tp4454
(Ntp4455
s(g18
g6
I143
g13
tp4456
(Ntp4457
s(g21
g6
I53
g3
tp4458
(Ntp4459
s(g12
g25
I112
g3
tp4460
(Ntp4461
s(g12
g6
I185
g13
tp4462
(Ntp4463
s(g12
g6
I50
g13
tp4464
(Ntp4465
s(g21
g25
I115
g3
tp4466
(Ntp4467
s(g21
g25
I60
g13
tp4468
(Ntp4469
s(g1
g6
I163
g13
tp4470
(Ntp4471
s(g9
g25
I58
g13
tp4472
(Ntp4473
s(g24
g25
I101
g3
tp4474
(Ntp4475
s(g1
g6
I93
g3
tp4476
(Ntp4477
s(g21
g2
I79
g13
tp4478
(Ntp4479
s(g18
g25
I31
g3
tp4480
(Ntp4481
s(g18
g6
I164
g13
tp4482
(Ntp4483
s(g21
g6
I137
g3
tp4484
(Ntp4485
s(g18
g6
I90
g3
tp4486
(Ntp4487
s(g9
g6
I1
g13
tp4488
(Ntp4489
s(g12
g25
I62
g13
tp4490
(Ntp4491
s(g1
g25
I151
g3
tp4492
(Ntp4493
s(g24
g25
I114
g3
tp4494
(Ntp4495
s(g9
g25
I3
g13
tp4496
(Ntp4497
s(g12
g6
I4
g13
tp4498
(Ntp4499
s(g1
g2
I14
g13
tp4500
(Ntp4501
s(g21
g6
I176
g13
tp4502
(Ntp4503
s(g21
g25
I67
g13
tp4504
(Ntp4505
s(g24
g6
I68
g3
tp4506
(Ntp4507
s(g24
g2
I103
g3
tp4508
(Ntp4509
s(g18
g2
I99
g3
tp4510
(Ntp4511
s(g9
g25
I84
g13
tp4512
(Ntp4513
s(g21
g2
I81
g13
tp4514
(Ntp4515
s(g12
g6
I77
g3
tp4516
(Ntp4517
s(g9
g6
I23
g13
tp4518
(Ntp4519
s(g21
g6
I205
g13
tp4520
(Ntp4521
s(g1
g2
I9
g3
tp4522
(Ntp4523
s(g18
g6
I51
g3
tp4524
(Ntp4525
s(g1
g6
I168
g13
tp4526
(Ntp4527
s(g1
g6
I204
g3
tp4528
(Ntp4529
s(g21
g6
I166
g13
tp4530
(Ntp4531
s(g21
g6
I24
g3
tp4532
(Ntp4533
s(g18
g6
I195
g13
tp4534
(Ntp4535
s(g24
g2
I105
g3
tp4536
(Ntp4537
s(g9
g25
I67
g13
tp4538
(Ntp4539
s(g18
g6
I182
g13
tp4540
(Ntp4541
s(g21
g2
I68
g3
tp4542
(Ntp4543
s(g21
g6
I165
g3
tp4544
(Ntp4545
s(g9
g2
I127
g13
tp4546
(Ntp4547
s(g12
g6
I170
g3
tp4548
(Ntp4549
s(g9
g6
I38
g13
tp4550
(Ntp4551
s(g1
g6
I134
g13
tp4552
(Ntp4553
s(g18
g6
I131
g13
tp4554
(Ntp4555
s(g12
g6
I54
g13
tp4556
(Ntp4557
s(g1
g25
I112
g3
tp4558
(Ntp4559
s(g21
g25
I18
g3
tp4560
(Ntp4561
s(g21
g25
I56
g13
tp4562
(Ntp4563
s(g12
g2
I38
g3
tp4564
(Ntp4565
s(g24
g6
I131
g3
tp4566
(Ntp4567
s(g21
g6
I49
g3
tp4568
(Ntp4569
s(g18
g6
I152
g13
tp4570
(Ntp4571
s(g9
g6
I5
g13
tp4572
(Ntp4573
s(g1
g25
I20
g3
tp4574
(Ntp4575
s(g12
g25
I58
g13
tp4576
(Ntp4577
s(g24
g6
I87
g13
tp4578
(Ntp4579
s(g24
g6
I177
g3
tp4580
(Ntp4581
s(g9
g25
I15
g13
tp4582
(Ntp4583
s(g18
g6
I144
g3
tp4584
(Ntp4585
s(g12
g6
I24
g13
tp4586
(Ntp4587
s(g1
g2
I10
g13
tp4588
(Ntp4589
s(g21
g2
I35
g3
tp4590
(Ntp4591
s(g24
g6
I92
g3
tp4592
(Ntp4593
s(g1
g6
I8
g3
tp4594
(Ntp4595
s(g21
g6
I180
g13
tp4596
(Ntp4597
s(g21
g25
I95
g13
tp4598
(Ntp4599
s(g1
g6
I171
g13
tp4600
(Ntp4601
s(g24
g6
I58
g13
tp4602
(Ntp4603
s(g9
g25
I80
g13
tp4604
(Ntp4605
s(g1
g25
I59
g3
tp4606
(Ntp4607
s(g1
g25
I126
g3
tp4608
(Ntp4609
s(g18
g6
I7
g13
tp4610
(Ntp4611
s(g12
g6
I49
g13
tp4612
(Ntp4613
s(g21
g6
I193
g13
tp4614
(Ntp4615
s(g12
g6
I206
g13
tp4616
(Ntp4617
s(g1
g25
I98
g13
tp4618
(Ntp4619
s(g18
g6
I213
g3
tp4620
(Ntp4621
s(g21
g6
I136
g3
tp4622
(Ntp4623
s(g18
g6
I208
g13
tp4624
(Ntp4625
s(g9
g25
I57
g13
tp4626
(Ntp4627
s(g1
g6
I117
g3
tp4628
(Ntp4629
s(g12
g6
I103
g13
tp4630
(Ntp4631
s(g18
g25
I118
g3
tp4632
(Ntp4633
s(g1
g25
I79
g13
tp4634
(Ntp4635
s(g21
g6
I218
g13
tp4636
(Ntp4637
s(g21
g25
I105
g13
tp4638
(Ntp4639
s(g21
g6
I135
g3
tp4640
(Ntp4641
s(g12
g6
I177
g13
tp4642
(Ntp4643
s(g9
g2
I19
g3
tp4644
(Ntp4645
s(g1
g2
I118
g13
tp4646
(Ntp4647
s(g18
g2
I32
g3
tp4648
(Ntp4649
s(g21
g6
I108
g13
tp4650
(Ntp4651
s(g21
g6
I99
g3
tp4652
(Ntp4653
s(g12
g6
I63
g3
tp4654
(Ntp4655
s(g24
g2
I50
g3
tp4656
(Ntp4657
s(g1
g2
I125
g3
tp4658
(Ntp4659
s(g9
g2
I99
g13
tp4660
(Ntp4661
s(g12
g25
I84
g3
tp4662
(Ntp4663
s(g1
g2
I91
g13
tp4664
(Ntp4665
s(g1
g6
I130
g13
tp4666
(Ntp4667
s(g9
g6
I34
g3
tp4668
(Ntp4669
s(g1
g25
I25
g3
tp4670
(Ntp4671
s(g21
g6
I69
g13
tp4672
(Ntp4673
s(g21
g6
I93
g3
tp4674
(Ntp4675
s(g12
g6
I34
g3
tp4676
(Ntp4677
s(g21
g2
I118
g3
tp4678
(Ntp4679
s(g24
g25
I65
g3
tp4680
(Ntp4681
s(g1
g6
I90
g3
tp4682
(Ntp4683
s(g9
g2
I72
g13
tp4684
(Ntp4685
s(g21
g6
I57
g3
tp4686
(Ntp4687
s(g18
g25
I35
g3
tp4688
(Ntp4689
s(g12
g6
I105
g3
tp4690
(Ntp4691
s(g18
g25
I72
g3
tp4692
(Ntp4693
s(g21
g6
I146
g13
tp4694
(Ntp4695
s(g9
g25
I43
g3
tp4696
(Ntp4697
s(g9
g6
I134
g3
tp4698
(Ntp4699
s(g12
g2
I59
g13
tp4700
(Ntp4701
s(g24
g25
I27
g13
tp4702
(Ntp4703
s(g24
g25
I78
g3
tp4704
(Ntp4705
s(g24
g25
I19
g3
tp4706
(Ntp4707
s(g21
g25
I73
g3
tp4708
(Ntp4709
s(g18
g25
I95
g3
tp4710
(Ntp4711
s(g24
g6
I83
g13
tp4712
(Ntp4713
s(g24
g2
I102
g3
tp4714
(Ntp4715
s(g12
g6
I28
g13
tp4716
(Ntp4717
s(g24
g6
I44
g13
tp4718
(Ntp4719
s(g18
g2
I79
g3
tp4720
(Ntp4721
s(g21
g25
I91
g13
tp4722
(Ntp4723
s(g21
g25
I37
g3
tp4724
(Ntp4725
s(g9
g6
I44
g3
tp4726
(Ntp4727
s(g24
g6
I38
g13
tp4728
(Ntp4729
s(g12
g6
I201
g13
tp4730
(Ntp4731
s(g18
g6
I52
g3
tp4732
(Ntp4733
s(g9
g6
I91
g13
tp4734
(Ntp4735
s(g12
g6
I205
g3
tp4736
(Ntp4737
s(g1
g25
I102
g13
tp4738
(Ntp4739
s(g24
g6
I77
g13
tp4740
(Ntp4741
s(g12
g2
I53
g3
tp4742
(Ntp4743
s(g9
g25
I37
g13
tp4744
(Ntp4745
s(g12
g6
I123
g13
tp4746
(Ntp4747
s(g24
g25
I88
g3
tp4748
(Ntp4749
s(g9
g2
I15
g3
tp4750
(Ntp4751
s(g1
g25
I51
g13
tp4752
(Ntp4753
s(g21
g25
I101
g13
tp4754
(Ntp4755
s(g18
g6
I98
g3
tp4756
(Ntp4757
s(g12
g6
I143
g3
tp4758
(Ntp4759
s(g1
g6
I76
g3
tp4760
(Ntp4761
s(g18
g2
I89
g3
tp4762
(Ntp4763
s(g1
g2
I62
g13
tp4764
(Ntp4765
s(g12
g6
I39
g3
tp4766
(Ntp4767
s(g1
g2
I114
g13
tp4768
(Ntp4769
s(g12
g6
I171
g3
tp4770
(Ntp4771
s(g21
g6
I96
g13
tp4772
(Ntp4773
s(g1
g25
I88
g13
tp4774
(Ntp4775
s(g24
g25
I9
g13
tp4776
(Ntp4777
s(g18
g25
I92
g13
tp4778
(Ntp4779
s(g9
g2
I103
g13
tp4780
(Ntp4781
s(g1
g25
I83
g3
tp4782
(Ntp4783
s(g12
g6
I77
g13
tp4784
(Ntp4785
s(g1
g2
I71
g13
tp4786
(Ntp4787
s(g12
g6
I117
g3
tp4788
(Ntp4789
s(g1
g25
I37
g13
tp4790
(Ntp4791
s(g21
g6
I121
g13
tp4792
(Ntp4793
s(g1
g6
I134
g3
tp4794
(Ntp4795
s(g1
g6
I50
g3
tp4796
(Ntp4797
s(g21
g6
I54
g3
tp4798
(Ntp4799
s(g1
g2
I108
g13
tp4800
(Ntp4801
s(g21
g6
I150
g13
tp4802
(Ntp4803
s(g1
g6
I183
g13
tp4804
(Ntp4805
s(g18
g2
I25
g3
tp4806
(Ntp4807
s(g24
g25
I31
g13
tp4808
(Ntp4809
s(g9
g2
I2
g13
tp4810
(Ntp4811
s(g18
g6
I145
g3
tp4812
(Ntp4813
s(g1
g2
I49
g13
tp4814
(Ntp4815
s(g24
g6
I48
g3
tp4816
(Ntp4817
s(g21
g6
I111
g13
tp4818
(Ntp4819
s(g24
g25
I74
g13
tp4820
(Ntp4821
s(g24
g6
I40
g13
tp4822
(Ntp4823
s(g1
g25
I90
g3
tp4824
(Ntp4825
s(g12
g25
I1
g3
tp4826
(Ntp4827
s(g21
g25
I87
g13
tp4828
(Ntp4829
s(g9
g6
I119
g3
tp4830
(Ntp4831
s(g9
g25
I107
g3
tp4832
(Ntp4833
s(g1
g6
I162
g3
tp4834
(Ntp4835
s(g9
g6
I95
g13
tp4836
(Ntp4837
s(g12
g6
I127
g13
tp4838
(Ntp4839
s(g24
g6
I155
g3
tp4840
(Ntp4841
s(g1
g25
I55
g13
tp4842
(Ntp4843
s(g1
g6
I27
g3
tp4844
(Ntp4845
s(g9
g2
I25
g13
tp4846
(Ntp4847
s(g18
g25
I103
g3
tp4848
(Ntp4849
s(g21
g6
I66
g3
tp4850
(Ntp4851
s(g1
g2
I58
g13
tp4852
(Ntp4853
s(g18
g6
I90
g13
tp4854
(Ntp4855
s(g21
g6
I100
g13
tp4856
(Ntp4857
s(g24
g25
I13
g13
tp4858
(Ntp4859
s(g18
g25
I88
g13
tp4860
(Ntp4861
s(g9
g2
I107
g13
tp4862
(Ntp4863
s(g21
g6
I82
g3
tp4864
(Ntp4865
s(g18
g6
I55
g13
tp4866
(Ntp4867
s(g21
g6
I166
g3
tp4868
(Ntp4869
s(g12
g6
I65
g13
tp4870
(Ntp4871
s(g1
g2
I67
g13
tp4872
(Ntp4873
s(g21
g6
I125
g13
tp4874
(Ntp4875
s(g24
g25
I120
g13
tp4876
(Ntp4877
s(g9
g6
I162
g3
tp4878
(Ntp4879
s(g24
g25
I89
g3
tp4880
(Ntp4881
s(g1
g25
I153
g3
tp4882
(Ntp4883
s(g18
g25
I113
g13
tp4884
(Ntp4885
s(g21
g6
I138
g13
tp4886
(Ntp4887
s(g21
g6
I185
g3
tp4888
(Ntp4889
s(g18
g6
I117
g3
tp4890
(Ntp4891
s(g18
g2
I88
g3
tp4892
(Ntp4893
s(g21
g6
I124
g3
tp4894
(Ntp4895
s(g9
g2
I6
g13
tp4896
(Ntp4897
s(g24
g6
I70
g3
tp4898
(Ntp4899
s(g1
g2
I61
g13
tp4900
(Ntp4901
s(g21
g6
I99
g13
tp4902
(Ntp4903
s(g21
g6
I24
g13
tp4904
(Ntp4905
s(g24
g25
I78
g13
tp4906
(Ntp4907
s(g9
g6
I188
g3
tp4908
(Ntp4909
s(g24
g6
I20
g13
tp4910
(Ntp4911
s(g18
g2
I87
g3
tp4912
(Ntp4913
s(g21
g6
I107
g3
tp4914
(Ntp4915
s(g1
g6
I89
g13
tp4916
(Ntp4917
s(g21
g6
I53
g13
tp4918
(Ntp4919
s(g12
g6
I67
g3
tp4920
(Ntp4921
s(g9
g25
I125
g3
tp4922
(Ntp4923
s(g9
g6
I172
g3
tp4924
(Ntp4925
s(g9
g2
I56
g13
tp4926
(Ntp4927
s(g9
g6
I99
g13
tp4928
(Ntp4929
s(g12
g6
I30
g3
tp4930
(Ntp4931
s(g1
g25
I40
g3
tp4932
(Ntp4933
s(g18
g2
I13
g3
tp4934
(Ntp4935
s(g18
g6
I99
g3
tp4936
(Ntp4937
s(g18
g6
I210
g3
tp4938
(Ntp4939
s(g12
g6
I115
g13
tp4940
(Ntp4941
s(g12
g6
I128
g3
tp4942
(Ntp4943
s(g24
g2
I76
g3
tp4944
(Ntp4945
s(g1
g25
I59
g13
tp4946
(Ntp4947
s(g12
g25
I40
g3
tp4948
(Ntp4949
s(g12
g6
I44
g13
tp4950
(Ntp4951
s(g24
g2
I21
g13
tp4952
(Ntp4953
s(g18
g6
I94
g13
tp4954
(Ntp4955
s(g12
g6
I104
g13
tp4956
(Ntp4957
s(g1
g25
I114
g3
tp4958
(Ntp4959
s(g18
g6
I44
g3
tp4960
(Ntp4961
s(g18
g25
I84
g13
tp4962
(Ntp4963
s(g12
g6
I197
g3
tp4964
(Ntp4965
s(g1
g6
I135
g3
tp4966
(Ntp4967
s(g12
g6
I69
g13
tp4968
(Ntp4969
s(g12
g2
I3
g3
tp4970
(Ntp4971
s(g9
g2
I89
g3
tp4972
(Ntp4973
s(g1
g25
I125
g3
tp4974
(Ntp4975
s(g21
g2
I125
g3
tp4976
(Ntp4977
s(g1
g25
I22
g3
tp4978
(Ntp4979
s(g21
g6
I94
g3
tp4980
(Ntp4981
s(g18
g25
I77
g13
tp4982
(Ntp4983
s(g21
g2
I104
g3
tp4984
(Ntp4985
s(g18
g6
I64
g13
tp4986
(Ntp4987
s(g9
g25
I61
g3
tp4988
(Ntp4989
s(g12
g2
I61
g3
tp4990
(Ntp4991
s(g21
g6
I142
g13
tp4992
(Ntp4993
s(g18
g25
I36
g3
tp4994
(Ntp4995
s(g9
g25
I40
g3
tp4996
(Ntp4997
s(g24
g25
I103
g13
tp4998
(Ntp4999
s(g9
g2
I129
g13
tp5000
(Ntp5001
s(g9
g2
I10
g13
tp5002
(Ntp5003
s(g24
g6
I43
g3
tp5004
(Ntp5005
s(g1
g2
I57
g13
tp5006
(Ntp5007
s(g21
g25
I78
g3
tp5008
(Ntp5009
s(g21
g6
I103
g13
tp5010
(Ntp5011
s(g21
g6
I28
g13
tp5012
(Ntp5013
s(g24
g25
I82
g13
tp5014
(Ntp5015
s(g18
g6
I128
g3
tp5016
(Ntp5017
s(g12
g6
I211
g3
tp5018
(Ntp5019
s(g9
g2
I87
g13
tp5020
(Ntp5021
s(g1
g6
I24
g3
tp5022
(Ntp5023
s(g18
g25
I91
g13
tp5024
(Ntp5025
s(g9
g2
I19
g13
tp5026
(Ntp5027
s(g21
g6
I41
g13
tp5028
(Ntp5029
s(g1
g25
I107
g3
tp5030
(Ntp5031
s(g24
g25
I55
g3
tp5032
(Ntp5033
s(g9
g2
I60
g13
tp5034
(Ntp5035
s(g9
g6
I58
g3
tp5036
(Ntp5037
s(g12
g25
I59
g3
tp5038
(Ntp5039
s(g21
g6
I2
g13
tp5040
(Ntp5041
s(g24
g6
I117
g13
tp5042
(Ntp5043
s(g18
g2
I38
g3
tp5044
(Ntp5045
s(g9
g6
I160
g13
tp5046
(Ntp5047
s(g18
g25
I75
g3
tp5048
(Ntp5049
s(g9
g2
I5
g13
tp5050
(Ntp5051
s(g12
g25
I87
g3
tp5052
(Ntp5053
s(g21
g6
I95
g13
tp5054
(Ntp5055
s(g9
g6
I29
g3
tp5056
(Ntp5057
s(g24
g2
I17
g13
tp5058
(Ntp5059
s(g18
g6
I82
g13
tp5060
(Ntp5061
s(g1
g2
I52
g3
tp5062
(Ntp5063
s(g21
g6
I83
g3
tp5064
(Ntp5065
s(g21
g6
I194
g3
tp5066
(Ntp5067
s(g12
g6
I36
g3
tp5068
(Ntp5069
s(g18
g25
I33
g3
tp5070
(Ntp5071
s(g12
g6
I89
g13
tp5072
(Ntp5073
s(g9
g6
I163
g3
tp5074
(Ntp5075
s(g1
g25
I9
g3
tp5076
(Ntp5077
s(g12
g25
I45
g3
tp5078
(Ntp5079
s(g12
g6
I114
g3
tp5080
(Ntp5081
s(g9
g6
I75
g3
tp5082
(Ntp5083
s(g1
g6
I65
g3
tp5084
(Ntp5085
s(g18
g25
I73
g13
tp5086
(Ntp5087
s(g24
g2
I111
g13
tp5088
(Ntp5089
s(g18
g6
I68
g13
tp5090
(Ntp5091
s(g18
g25
I93
g3
tp5092
(Ntp5093
s(g9
g6
I197
g13
tp5094
(Ntp5095
s(g24
g2
I82
g13
tp5096
(Ntp5097
s(g9
g2
I14
g13
tp5098
(Ntp5099
s(g18
g2
I88
g13
tp5100
(Ntp5101
s(g1
g2
I58
g3
tp5102
(Ntp5103
s(g1
g2
I37
g13
tp5104
(Ntp5105
s(g21
g6
I16
g13
tp5106
(Ntp5107
s(g9
g2
I91
g13
tp5108
(Ntp5109
s(g18
g2
I18
g3
tp5110
(Ntp5111
s(g18
g25
I87
g13
tp5112
(Ntp5113
s(g18
g25
I44
g13
tp5114
(Ntp5115
s(g21
g6
I45
g13
tp5116
(Ntp5117
s(g18
g2
I2
g3
tp5118
(Ntp5119
s(g9
g2
I32
g13
tp5120
(Ntp5121
s(g18
g6
I79
g3
tp5122
(Ntp5123
s(g18
g6
I211
g3
tp5124
(Ntp5125
s(g12
g6
I16
g3
tp5126
(Ntp5127
s(g21
g25
I6
g3
tp5128
(Ntp5129
s(g21
g6
I6
g13
tp5130
(Ntp5131
s(g24
g25
I51
g13
tp5132
(Ntp5133
s(g24
g6
I113
g13
tp5134
(Ntp5135
s(g9
g6
I164
g13
tp5136
(Ntp5137
s(g24
g25
I109
g3
tp5138
(Ntp5139
s(g1
g6
I4
g13
tp5140
(Ntp5141
s(g1
g6
I115
g13
tp5142
(Ntp5143
s(g21
g6
I83
g13
tp5144
(Ntp5145
s(g1
g6
I28
g3
tp5146
(Ntp5147
s(g24
g2
I29
g13
tp5148
(Ntp5149
s(g18
g6
I86
g13
tp5150
(Ntp5151
s(g18
g2
I108
g3
tp5152
(Ntp5153
s(g12
g6
I15
g13
tp5154
(Ntp5155
s(g18
g6
I25
g13
tp5156
(Ntp5157
s(g9
g6
I191
g3
tp5158
(Ntp5159
s(g1
g6
I48
g3
tp5160
(Ntp5161
s(g12
g2
I69
g13
tp5162
(Ntp5163
s(g24
g2
I64
g13
tp5164
(Ntp5165
s(g18
g2
I76
g13
tp5166
(Ntp5167
s(g9
g6
I186
g13
tp5168
(Ntp5169
s(g18
g6
I172
g3
tp5170
(Ntp5171
s(g1
g6
I7
g3
tp5172
(Ntp5173
s(g24
g6
I170
g3
tp5174
(Ntp5175
s(g1
g6
I194
g3
tp5176
(Ntp5177
s(g12
g2
I50
g3
tp5178
(Ntp5179
s(g18
g25
I37
g3
tp5180
(Ntp5181
s(g21
g2
I58
g13
tp5182
(Ntp5183
s(g18
g25
I69
g13
tp5184
(Ntp5185
s(g24
g2
I107
g13
tp5186
(Ntp5187
s(g18
g6
I56
g13
tp5188
(Ntp5189
s(g18
g6
I43
g13
tp5190
(Ntp5191
s(g21
g25
I79
g3
tp5192
(Ntp5193
s(g1
g25
I92
g3
tp5194
(Ntp5195
s(g24
g2
I94
g13
tp5196
(Ntp5197
s(g21
g6
I16
g3
tp5198
(Ntp5199
s(g18
g6
I129
g3
tp5200
(Ntp5201
s(g24
g6
I96
g3
tp5202
(Ntp5203
s(g12
g2
I89
g3
tp5204
(Ntp5205
s(g21
g6
I20
g13
tp5206
(Ntp5207
s(g9
g25
I22
g3
tp5208
(Ntp5209
s(g1
g25
I71
g3
tp5210
(Ntp5211
s(g18
g25
I40
g13
tp5212
(Ntp5213
s(g18
g6
I191
g3
tp5214
(Ntp5215
s(g1
g6
I97
g13
tp5216
(Ntp5217
s(g21
g6
I33
g13
tp5218
(Ntp5219
s(g12
g2
I11
g3
tp5220
(Ntp5221
s(g9
g2
I36
g13
tp5222
(Ntp5223
s(g12
g25
I64
g13
tp5224
(Ntp5225
s(g1
g6
I10
g13
tp5226
(Ntp5227
s(g21
g6
I58
g13
tp5228
(Ntp5229
s(g24
g25
I55
g13
tp5230
(Ntp5231
s(g18
g2
I14
g3
tp5232
(Ntp5233
s(g9
g6
I168
g13
tp5234
(Ntp5235
s(g1
g6
I203
g3
tp5236
(Ntp5237
s(g18
g25
I54
g13
tp5238
(Ntp5239
s(g1
g6
I107
g3
tp5240
(Ntp5241
s(g1
g6
I127
g13
tp5242
(Ntp5243
s(g21
g6
I127
g3
tp5244
(Ntp5245
s(g21
g6
I87
g13
tp5246
(Ntp5247
s(g21
g6
I195
g3
tp5248
(Ntp5249
s(g12
g6
I181
g13
tp5250
(Ntp5251
s(g24
g2
I25
g13
tp5252
(Ntp5253
s(g9
g6
I56
g3
tp5254
(Ntp5255
s(g24
g25
I95
g3
tp5256
(Ntp5257
s(g24
g6
I135
g13
tp5258
(Ntp5259
s(g24
g6
I149
g3
tp5260
(Ntp5261
s(g18
g25
I9
g3
tp5262
(Ntp5263
s(g12
g6
I194
g3
tp5264
(Ntp5265
s(g9
g6
I190
g13
tp5266
(Ntp5267
s(g21
g6
I21
g3
tp5268
(Ntp5269
s(g12
g25
I120
g13
tp5270
(Ntp5271
s(g21
g2
I75
g3
tp5272
(Ntp5273
s(g21
g25
I83
g3
tp5274
(Ntp5275
s(g21
g2
I62
g13
tp5276
(Ntp5277
s(g1
g25
I137
g3
tp5278
(Ntp5279
s(g24
g2
I119
g13
tp5280
(Ntp5281
s(g18
g6
I60
g13
tp5282
(Ntp5283
s(g9
g6
I203
g3
tp5284
(Ntp5285
s(g1
g25
I146
g13
tp5286
(Ntp5287
s(g1
g2
I30
g3
tp5288
(Ntp5289
s(g18
g2
I85
g3
tp5290
(Ntp5291
s(g12
g2
I62
g3
tp5292
(Ntp5293
s(g21
g6
I105
g3
tp5294
(Ntp5295
s(g12
g25
I17
g13
tp5296
(Ntp5297
s(g24
g2
I90
g13
tp5298
(Ntp5299
s(g12
g6
I60
g3
tp5300
(Ntp5301
s(g24
g6
I54
g3
tp5302
(Ntp5303
s(g21
g2
I23
g13
tp5304
(Ntp5305
s(g24
g6
I115
g3
tp5306
(Ntp5307
s(g18
g2
I28
g13
tp5308
(Ntp5309
s(g12
g25
I102
g13
tp5310
(Ntp5311
s(g12
g6
I44
g3
tp5312
(Ntp5313
s(g1
g2
I124
g3
tp5314
(Ntp5315
s(g18
g25
I36
g13
tp5316
(Ntp5317
s(g9
g25
I123
g13
tp5318
(Ntp5319
s(g18
g2
I62
g3
tp5320
(Ntp5321
s(g24
g2
I7
g3
tp5322
(Ntp5323
s(g18
g25
I19
g13
tp5324
(Ntp5325
s(g1
g6
I109
g13
tp5326
(Ntp5327
s(g18
g6
I212
g3
tp5328
(Ntp5329
s(g18
g2
I98
g13
tp5330
(Ntp5331
s(g12
g25
I60
g3
tp5332
(Ntp5333
s(g21
g6
I62
g13
tp5334
(Ntp5335
s(g12
g6
I144
g3
tp5336
(Ntp5337
s(g18
g25
I13
g13
tp5338
(Ntp5339
s(g18
g25
I50
g13
tp5340
(Ntp5341
s(g18
g6
I46
g3
tp5342
(Ntp5343
s(g12
g6
I199
g3
tp5344
(Ntp5345
s(g21
g6
I75
g13
tp5346
(Ntp5347
s(g24
g25
I34
g13
tp5348
(Ntp5349
s(g9
g6
I13
g13
tp5350
(Ntp5351
s(g18
g6
I25
g3
tp5352
(Ntp5353
s(g21
g2
I87
g3
tp5354
(Ntp5355
s(g24
g6
I131
g13
tp5356
(Ntp5357
s(g12
g6
I202
g3
tp5358
(Ntp5359
s(g1
g6
I38
g3
tp5360
(Ntp5361
s(g12
g2
I51
g3
tp5362
(Ntp5363
s(g18
g25
I34
g3
tp5364
(Ntp5365
s(g12
g25
I116
g13
tp5366
(Ntp5367
s(g1
g25
I6
g3
tp5368
(Ntp5369
s(g21
g2
I50
g13
tp5370
(Ntp5371
s(g24
g6
I170
g13
tp5372
(Ntp5373
s(g9
g6
I68
g3
tp5374
(Ntp5375
s(g12
g6
I24
g3
tp5376
(Ntp5377
s(g1
g6
I66
g3
tp5378
(Ntp5379
s(g21
g6
I17
g3
tp5380
(Ntp5381
s(g1
g25
I150
g13
tp5382
(Ntp5383
s(g12
g25
I13
g13
tp5384
(Ntp5385
s(g12
g2
I24
g13
tp5386
(Ntp5387
s(g1
g25
I52
g3
tp5388
(Ntp5389
s(g21
g2
I43
g13
tp5390
(Ntp5391
s(g9
g25
I23
g3
tp5392
(Ntp5393
s(g18
g2
I16
g13
tp5394
(Ntp5395
s(g9
g6
I221
g13
tp5396
(Ntp5397
s(g12
g25
I98
g13
tp5398
(Ntp5399
s(g18
g6
I176
g3
tp5400
(Ntp5401
s(g21
g2
I3
g3
tp5402
(Ntp5403
s(g1
g6
I40
g3
tp5404
(Ntp5405
s(g18
g25
I32
g13
tp5406
(Ntp5407
s(g9
g25
I103
g13
tp5408
(Ntp5409
s(g12
g6
I160
g13
tp5410
(Ntp5411
s(g24
g6
I102
g13
tp5412
(Ntp5413
s(g18
g25
I111
g13
tp5414
(Ntp5415
s(g1
g25
I136
g13
tp5416
(Ntp5417
s(g12
g25
I123
g13
tp5418
(Ntp5419
s(g24
g2
I59
g13
tp5420
(Ntp5421
s(g21
g2
I61
g13
tp5422
(Ntp5423
s(g9
g25
I76
g13
tp5424
(Ntp5425
s(g18
g6
I76
g3
tp5426
(Ntp5427
s(g18
g2
I102
g13
tp5428
(Ntp5429
s(g21
g6
I104
g3
tp5430
(Ntp5431
s(g1
g6
I18
g13
tp5432
(Ntp5433
s(g12
g6
I16
g13
tp5434
(Ntp5435
s(g1
g2
I75
g3
tp5436
(Ntp5437
s(g24
g6
I198
g3
tp5438
(Ntp5439
s(g18
g25
I22
g3
tp5440
(Ntp5441
s(g18
g25
I14
g13
tp5442
(Ntp5443
s(g24
g2
I34
g13
tp5444
(Ntp5445
s(g9
g6
I236
g13
tp5446
(Ntp5447
s(g1
g6
I71
g13
tp5448
(Ntp5449
s(g21
g6
I103
g3
tp5450
(Ntp5451
s(g18
g2
I31
g13
tp5452
(Ntp5453
s(g18
g6
I137
g3
tp5454
(Ntp5455
s(g18
g2
I113
g3
tp5456
(Ntp5457
s(g1
g6
I73
g3
tp5458
(Ntp5459
s(g18
g25
I6
g3
tp5460
(Ntp5461
s(g12
g6
I95
g3
tp5462
(Ntp5463
s(g9
g25
I97
g3
tp5464
(Ntp5465
s(g9
g6
I184
g3
tp5466
(Ntp5467
s(g24
g6
I143
g13
tp5468
(Ntp5469
s(g1
g25
I71
g13
tp5470
(Ntp5471
s(g12
g25
I116
g3
tp5472
(Ntp5473
s(g9
g6
I130
g13
tp5474
(Ntp5475
s(g21
g6
I61
g3
tp5476
(Ntp5477
s(g12
g25
I112
g13
tp5478
(Ntp5479
s(g21
g2
I86
g3
tp5480
(Ntp5481
s(g24
g25
I97
g3
tp5482
(Ntp5483
s(g1
g6
I81
g3
tp5484
(Ntp5485
s(g1
g2
I31
g3
tp5486
(Ntp5487
s(g21
g6
I149
g3
tp5488
(Ntp5489
s(g12
g2
I22
g13
tp5490
(Ntp5491
s(g12
g6
I210
g13
tp5492
(Ntp5493
s(g24
g25
I131
g13
tp5494
(Ntp5495
s(g18
g25
I104
g3
tp5496
(Ntp5497
s(g9
g25
I11
g3
tp5498
(Ntp5499
s(g9
g6
I230
g3
tp5500
(Ntp5501
s(g12
g25
I9
g13
tp5502
(Ntp5503
s(g12
g2
I28
g13
tp5504
(Ntp5505
s(g24
g25
I110
g3
tp5506
(Ntp5507
s(g1
g6
I195
g13
tp5508
(Ntp5509
s(g24
g2
I41
g13
tp5510
(Ntp5511
s(g21
g2
I47
g13
tp5512
(Ntp5513
s(g18
g2
I20
g13
tp5514
(Ntp5515
s(g18
g25
I127
g3
tp5516
(Ntp5517
s(g18
g6
I24
g3
tp5518
(Ntp5519
s(g12
g6
I188
g3
tp5520
(Ntp5521
s(g24
g6
I88
g3
tp5522
(Ntp5523
s(g12
g25
I94
g13
tp5524
(Ntp5525
s(g21
g25
I14
g13
tp5526
(Ntp5527
s(g18
g2
I111
g3
tp5528
(Ntp5529
s(g12
g2
I53
g13
tp5530
(Ntp5531
s(g9
g2
I69
g3
tp5532
(Ntp5533
s(g21
g25
I5
g3
tp5534
(Ntp5535
s(g12
g6
I164
g13
tp5536
(Ntp5537
s(g18
g6
I40
g3
tp5538
(Ntp5539
s(g1
g25
I140
g13
tp5540
(Ntp5541
s(g21
g25
I35
g13
tp5542
(Ntp5543
s(g12
g25
I119
g13
tp5544
(Ntp5545
s(g24
g2
I7
g13
tp5546
(Ntp5547
s(g12
g6
I145
g13
tp5548
(Ntp5549
s(g21
g2
I74
g13
tp5550
(Ntp5551
s(g24
g2
I46
g13
tp5552
(Ntp5553
s(g9
g25
I6
g13
tp5554
(Ntp5555
s(g18
g6
I22
g3
tp5556
(Ntp5557
s(g12
g6
I175
g3
tp5558
(Ntp5559
s(g1
g6
I200
g13
tp5560
(Ntp5561
s(g18
g2
I19
g13
tp5562
(Ntp5563
s(g1
g6
I108
g3
tp5564
(Ntp5565
s(g18
g6
I174
g3
tp5566
(Ntp5567
s(g12
g2
I73
g13
tp5568
(Ntp5569
s(g21
g6
I42
g3
tp5570
(Ntp5571
s(g9
g6
I134
g13
tp5572
(Ntp5573
s(g18
g2
I33
g3
tp5574
(Ntp5575
s(g1
g6
I210
g3
tp5576
(Ntp5577
s(g12
g2
I34
g3
tp5578
(Ntp5579
s(g1
g6
I38
g13
tp5580
(Ntp5581
s(g21
g6
I22
g3
tp5582
(Ntp5583
s(g12
g6
I177
g3
tp5584
(Ntp5585
s(g12
g2
I10
g13
tp5586
(Ntp5587
s(g24
g25
I135
g13
tp5588
(Ntp5589
s(g1
g25
I16
g3
tp5590
(Ntp5591
s(g12
g6
I152
g3
tp5592
(Ntp5593
s(g9
g6
I239
g13
tp5594
(Ntp5595
s(g12
g25
I5
g13
tp5596
(Ntp5597
s(g21
g6
I145
g3
tp5598
(Ntp5599
s(g24
g6
I181
g3
tp5600
(Ntp5601
s(g12
g6
I131
g13
tp5602
(Ntp5603
s(g24
g6
I80
g13
tp5604
(Ntp5605
s(g9
g6
I229
g13
tp5606
(Ntp5607
s(g12
g2
I9
g3
tp5608
(Ntp5609
s(g12
g25
I90
g13
tp5610
(Ntp5611
s(g21
g25
I10
g13
tp5612
(Ntp5613
s(g24
g2
I36
g3
tp5614
(Ntp5615
s(g1
g25
I122
g3
tp5616
(Ntp5617
s(g12
g25
I33
g3
tp5618
(Ntp5619
s(g18
g6
I142
g13
tp5620
(Ntp5621
s(g9
g25
I111
g13
tp5622
(Ntp5623
s(g12
g6
I184
g13
tp5624
(Ntp5625
s(g24
g6
I192
g13
tp5626
(Ntp5627
s(g1
g6
I109
g3
tp5628
(Ntp5629
s(g18
g6
I202
g13
tp5630
(Ntp5631
s(g9
g6
I87
g3
tp5632
(Ntp5633
s(g9
g6
I180
g3
tp5634
(Ntp5635
s(g18
g2
I1
g13
tp5636
(Ntp5637
s(g21
g25
I63
g13
tp5638
(Ntp5639
s(g18
g2
I12
g3
tp5640
(Ntp5641
s(g12
g25
I115
g13
tp5642
(Ntp5643
s(g18
g25
I42
g3
tp5644
(Ntp5645
s(g21
g25
I36
g3
tp5646
(Ntp5647
s(g24
g2
I3
g13
tp5648
(Ntp5649
s(g1
g6
I105
g3
tp5650
(Ntp5651
s(g21
g2
I78
g13
tp5652
(Ntp5653
s(g1
g25
I30
g3
tp5654
(Ntp5655
s(g18
g6
I167
g13
tp5656
(Ntp5657
s(g21
g2
I113
g13
tp5658
(Ntp5659
s(g12
g25
I61
g13
tp5660
(Ntp5661
s(g1
g25
I2
g13
tp5662
(Ntp5663
s(g21
g25
I20
g13
tp5664
(Ntp5665
s(g24
g6
I187
g3
tp5666
(Ntp5667
s(g24
g2
I42
g13
tp5668
(Ntp5669
s(g9
g25
I2
g13
tp5670
(Ntp5671
s(g12
g6
I7
g13
tp5672
(Ntp5673
s(g18
g2
I23
g13
tp5674
(Ntp5675
s(g18
g25
I7
g3
tp5676
(Ntp5677
s(g12
g6
I196
g3
tp5678
(Ntp5679
s(g1
g2
I113
g3
tp5680
(Ntp5681
s(g21
g2
I80
g13
tp5682
(Ntp5683
s(g1
g2
I22
g13
tp5684
(Ntp5685
s(g1
g25
I21
g3
tp5686
(Ntp5687
s(g21
g6
I204
g13
tp5688
(Ntp5689
s(g21
g6
I50
g3
tp5690
(Ntp5691
s(g12
g25
I43
g13
tp5692
(Ntp5693
s(g21
g6
I134
g3
tp5694
(Ntp5695
s(g24
g2
I19
g3
tp5696
(Ntp5697
s(g24
g6
I197
g13
tp5698
(Ntp5699
s(g12
g2
I60
g3
tp5700
(Ntp5701
s(g9
g25
I60
g13
tp5702
(Ntp5703
s(g18
g25
I76
g3
tp5704
(Ntp5705
s(g9
g2
I33
g3
tp5706
(Ntp5707
s(g1
g6
I34
g13
tp5708
(Ntp5709
s(g9
g6
I130
g3
tp5710
(Ntp5711
s(g21
g6
I165
g13
tp5712
(Ntp5713
s(g21
g6
I189
g3
tp5714
(Ntp5715
s(g12
g2
I14
g13
tp5716
(Ntp5717
s(g18
g25
I67
g3
tp5718
(Ntp5719
s(g18
g2
I47
g13
tp5720
(Ntp5721
s(g12
g6
I9
g3
tp5722
(Ntp5723
s(g1
g6
I203
g13
tp5724
(Ntp5725
s(g12
g2
I91
g13
tp5726
(Ntp5727
s(g21
g2
I99
g13
tp5728
(Ntp5729
s(g21
g25
I41
g3
tp5730
(Ntp5731
s(g1
g25
I3
g3
tp5732
(Ntp5733
s(g21
g6
I75
g3
tp5734
(Ntp5735
s(g18
g6
I152
g3
tp5736
(Ntp5737
s(g18
g6
I130
g13
tp5738
(Ntp5739
s(g12
g6
I188
g13
tp5740
(Ntp5741
s(g24
g6
I204
g13
tp5742
(Ntp5743
s(g12
g6
I99
g3
tp5744
(Ntp5745
s(g21
g25
I59
g13
tp5746
(Ntp5747
s(g9
g25
I93
g3
tp5748
(Ntp5749
s(g9
g6
I140
g3
tp5750
(Ntp5751
s(g1
g6
I174
g13
tp5752
(Ntp5753
s(g21
g2
I66
g13
tp5754
(Ntp5755
s(g18
g6
I155
g13
tp5756
(Ntp5757
s(g21
g2
I117
g13
tp5758
(Ntp5759
s(g9
g6
I4
g13
tp5760
(Ntp5761
s(g1
g25
I72
g3
tp5762
(Ntp5763
s(g9
g6
I59
g13
tp5764
(Ntp5765
s(g12
g25
I57
g13
tp5766
(Ntp5767
s(g1
g25
I6
g13
tp5768
(Ntp5769
s(g12
g6
I160
g3
tp5770
(Ntp5771
s(g24
g2
I108
g3
tp5772
(Ntp5773
s(g12
g2
I85
g3
tp5774
(Ntp5775
s(g24
g2
I54
g13
tp5776
(Ntp5777
s(g9
g25
I14
g13
tp5778
(Ntp5779
s(g12
g2
I8
g3
tp5780
(Ntp5781
s(g12
g6
I27
g13
tp5782
(Ntp5783
s(g1
g2
I128
g13
tp5784
(Ntp5785
s(g24
g6
I19
g13
tp5786
(Ntp5787
s(g21
g25
I94
g13
tp5788
(Ntp5789
s(g18
g6
I150
g3
tp5790
(Ntp5791
s(g9
g25
I83
g13
tp5792
(Ntp5793
s(g21
g2
I84
g13
tp5794
(Ntp5795
s(g9
g6
I93
g3
tp5796
(Ntp5797
s(g12
g2
I7
g3
tp5798
(Ntp5799
s(g18
g6
I141
g13
tp5800
(Ntp5801
s(g9
g25
I23
g13
tp5802
(Ntp5803
s(g12
g6
I48
g13
tp5804
(Ntp5805
s(g1
g2
I18
g13
tp5806
(Ntp5807
s(g21
g6
I192
g13
tp5808
(Ntp5809
s(g12
g6
I26
g3
tp5810
(Ntp5811
s(g12
g25
I39
g13
tp5812
(Ntp5813
s(g12
g2
I35
g3
tp5814
(Ntp5815
s(g24
g2
I65
g3
tp5816
(Ntp5817
s(g12
g6
I167
g13
tp5818
(Ntp5819
s(g9
g2
I57
g3
tp5820
(Ntp5821
s(g9
g25
I56
g13
tp5822
(Ntp5823
s(g1
g25
I17
g3
tp5824
(Ntp5825
s(g1
g25
I54
g3
tp5826
(Ntp5827
s(g21
g6
I62
g3
tp5828
(Ntp5829
s(g12
g6
I21
g3
tp5830
(Ntp5831
s(g12
g6
I153
g3
tp5832
(Ntp5833
s(g1
g6
I82
g3
tp5834
(Ntp5835
s(g24
g6
I222
g13
tp5836
(Ntp5837
s(g18
g25
I117
g3
tp5838
(Ntp5839
s(g18
g6
I157
g3
tp5840
(Ntp5841
s(g9
g25
I1
g13
tp5842
(Ntp5843
s(g9
g25
I8
g3
tp5844
(Ntp5845
s(g1
g25
I33
g3
tp5846
(Ntp5847
s(g1
g6
I13
g3
tp5848
(Ntp5849
s(g1
g2
I12
g13
tp5850
(Ntp5851
s(g1
g6
I215
g13
tp5852
(Ntp5853
s(g9
g2
I98
g13
tp5854
(Ntp5855
s(g9
g6
I41
g13
tp5856
(Ntp5857
s(g1
g6
I129
g13
tp5858
(Ntp5859
s(g24
g6
I180
g3
tp5860
(Ntp5861
s(g1
g6
I56
g3
tp5862
(Ntp5863
s(g21
g6
I207
g13
tp5864
(Ntp5865
s(g21
g6
I44
g3
tp5866
(Ntp5867
s(g24
g6
I200
g13
tp5868
(Ntp5869
s(g21
g25
I55
g13
tp5870
(Ntp5871
s(g9
g6
I215
g3
tp5872
(Ntp5873
s(g1
g6
I170
g13
tp5874
(Ntp5875
s(g21
g2
I70
g13
tp5876
(Ntp5877
s(g18
g2
I58
g3
tp5878
(Ntp5879
s(g18
g6
I159
g13
tp5880
(Ntp5881
s(g24
g6
I159
g3
tp5882
(Ntp5883
s(g18
g6
I139
g3
tp5884
(Ntp5885
s(g9
g6
I8
g13
tp5886
(Ntp5887
s(g9
g6
I63
g13
tp5888
(Ntp5889
s(g12
g25
I53
g13
tp5890
(Ntp5891
s(g1
g6
I159
g13
tp5892
(Ntp5893
s(g18
g25
I107
g3
tp5894
(Ntp5895
s(g9
g25
I10
g13
tp5896
(Ntp5897
s(g12
g6
I31
g13
tp5898
(Ntp5899
s(g12
g25
I119
g3
tp5900
(Ntp5901
s(g12
g6
I56
g3
tp5902
(Ntp5903
s(g9
g6
I125
g3
tp5904
(Ntp5905
s(g21
g25
I90
g13
tp5906
(Ntp5907
s(g18
g2
I65
g3
tp5908
(Ntp5909
s(g1
g2
I84
g3
tp5910
(Ntp5911
s(g9
g25
I95
g13
tp5912
(Ntp5913
s(g18
g2
I4
g3
tp5914
(Ntp5915
s(g21
g6
I162
g3
tp5916
(Ntp5917
s(g12
g6
I200
g13
tp5918
(Ntp5919
s(g18
g6
I129
g13
tp5920
(Ntp5921
s(g1
g6
I95
g3
tp5922
(Ntp5923
s(g12
g6
I52
g13
tp5924
(Ntp5925
s(g1
g25
I13
g3
tp5926
(Ntp5927
s(g9
g25
I75
g13
tp5928
(Ntp5929
s(g21
g6
I196
g13
tp5930
(Ntp5931
s(g12
g25
I35
g13
tp5932
(Ntp5933
s(g9
g6
I131
g3
tp5934
(Ntp5935
s(g1
g25
I149
g3
tp5936
(Ntp5937
s(g9
g25
I36
g13
tp5938
(Ntp5939
s(g9
g6
I100
g13
tp5940
(Ntp5941
s(g12
g6
I122
g13
tp5942
(Ntp5943
s(g12
g6
I6
g3
tp5944
(Ntp5945
s(g1
g6
I97
g3
tp5946
(Ntp5947
s(g1
g25
I50
g13
tp5948
(Ntp5949
s(g21
g6
I221
g13
tp5950
(Ntp5951
s(g21
g25
I100
g13
tp5952
(Ntp5953
s(g18
g25
I125
g3
tp5954
(Ntp5955
s(g18
g6
I26
g3
tp5956
(Ntp5957
s(g12
g6
I190
g3
tp5958
(Ntp5959
s(g24
g6
I90
g3
tp5960
(Ntp5961
s(g18
g2
I39
g13
tp5962
(Ntp5963
s(g9
g25
I61
g13
tp5964
(Ntp5965
s(g18
g6
I21
g3
tp5966
(Ntp5967
s(g21
g6
I220
g3
tp5968
(Ntp5969
s(g9
g2
I102
g13
tp5970
(Ntp5971
s(g1
g2
I70
g13
tp5972
(Ntp5973
s(g1
g6
I141
g13
tp5974
(Ntp5975
s(g21
g6
I195
g13
tp5976
(Ntp5977
s(g21
g6
I120
g13
tp5978
(Ntp5979
s(g24
g6
I180
g13
tp5980
(Ntp5981
s(g9
g25
I35
g3
tp5982
(Ntp5983
s(g9
g2
I79
g13
tp5984
(Ntp5985
s(g9
g25
I42
g13
tp5986
(Ntp5987
s(g9
g6
I22
g13
tp5988
(Ntp5989
s(g21
g6
I149
g13
tp5990
(Ntp5991
s(g1
g6
I182
g13
tp5992
(Ntp5993
s(g18
g6
I111
g3
tp5994
(Ntp5995
s(g18
g2
I86
g3
tp5996
(Ntp5997
s(g18
g6
I147
g13
tp5998
(Ntp5999
s(g24
g25
I28
g13
tp6000
(Ntp6001
s(g9
g6
I12
g13
tp6002
(Ntp6003
s(g9
g6
I195
g13
tp6004
(Ntp6005
s(g1
g6
I155
g13
tp6006
(Ntp6007
s(g18
g6
I3
g3
tp6008
(Ntp6009
s(g12
g6
I19
g13
tp6010
(Ntp6011
s(g24
g6
I41
g13
tp6012
(Ntp6013
s(g1
g6
I60
g3
tp6014
(Ntp6015
s(g21
g25
I86
g13
tp6016
(Ntp6017
s(g12
g6
I204
g13
tp6018
(Ntp6019
s(g12
g25
I31
g13
tp6020
(Ntp6021
s(g1
g25
I18
g3
tp6022
(Ntp6023
s(g21
g25
I79
g13
tp6024
(Ntp6025
s(g21
g6
I90
g3
tp6026
(Ntp6027
s(g18
g6
I204
g3
tp6028
(Ntp6029
s(g24
g6
I74
g13
tp6030
(Ntp6031
s(g12
g6
I154
g3
tp6032
(Ntp6033
s(g9
g25
I32
g13
tp6034
(Ntp6035
s(g24
g6
I202
g3
tp6036
(Ntp6037
s(g12
g6
I126
g13
tp6038
(Ntp6039
s(g9
g2
I114
g3
tp6040
(Ntp6041
s(g1
g25
I54
g13
tp6042
(Ntp6043
s(g21
g6
I209
g13
tp6044
(Ntp6045
s(g9
g25
I44
g3
tp6046
(Ntp6047
s(g9
g6
I71
g13
tp6048
(Ntp6049
s(g1
g25
I145
g3
tp6050
(Ntp6051
s(g1
g25
I64
g3
tp6052
(Ntp6053
s(g18
g2
I59
g13
tp6054
(Ntp6055
s(g12
g2
I93
g3
tp6056
(Ntp6057
s(g1
g25
I124
g3
tp6058
(Ntp6059
s(g21
g6
I65
g3
tp6060
(Ntp6061
s(g1
g25
I95
g13
tp6062
(Ntp6063
s(g24
g6
I28
g3
tp6064
(Ntp6065
s(g9
g2
I106
g13
tp6066
(Ntp6067
s(g12
g6
I64
g13
tp6068
(Ntp6069
s(g1
g2
I66
g13
tp6070
(Ntp6071
s(g1
g25
I103
g3
tp6072
(Ntp6073
s(g21
g6
I124
g13
tp6074
(Ntp6075
s(g21
g6
I84
g3
tp6076
(Ntp6077
s(g12
g6
I79
g3
tp6078
(Ntp6079
s(g21
g25
I42
g13
tp6080
(Ntp6081
s(g9
g2
I115
g13
tp6082
(Ntp6083
s(g18
g25
I58
g3
tp6084
(Ntp6085
s(g1
g2
I107
g13
tp6086
(Ntp6087
s(g21
g6
I137
g13
tp6088
(Ntp6089
s(g9
g25
I82
g3
tp6090
(Ntp6091
s(g24
g25
I96
g13
tp6092
(Ntp6093
s(g21
g25
I64
g3
tp6094
(Ntp6095
s(g12
g25
I91
g3
tp6096
(Ntp6097
s(g1
g2
I60
g13
tp6098
(Ntp6099
s(g18
g6
I165
g3
tp6100
(Ntp6101
s(g21
g6
I98
g13
tp6102
(Ntp6103
s(g24
g6
I21
g13
tp6104
(Ntp6105
s(g21
g6
I95
g3
tp6106
(Ntp6107
s(g21
g6
I163
g3
tp6108
(Ntp6109
s(g21
g25
I82
g13
tp6110
(Ntp6111
s(g1
g25
I130
g3
tp6112
(Ntp6113
s(g21
g6
I191
g13
tp6114
(Ntp6115
s(g9
g2
I35
g3
tp6116
(Ntp6117
s(g24
g25
I118
g13
tp6118
(Ntp6119
s(g18
g6
I197
g13
tp6120
(Ntp6121
s(g21
g6
I179
g3
tp6122
(Ntp6123
s(g9
g6
I98
g13
tp6124
(Ntp6125
s(g21
g2
I79
g3
tp6126
(Ntp6127
s(g1
g25
I141
g3
tp6128
(Ntp6129
s(g24
g6
I54
g13
tp6130
(Ntp6131
s(g12
g2
I44
g3
tp6132
(Ntp6133
s(g18
g25
I65
g3
tp6134
(Ntp6135
s(g12
g6
I114
g13
tp6136
(Ntp6137
s(g18
g25
I28
g3
tp6138
(Ntp6139
s(g12
g25
I77
g3
tp6140
(Ntp6141
s(g1
g25
I58
g13
tp6142
(Ntp6143
s(g9
g6
I75
g13
tp6144
(Ntp6145
s(g9
g6
I43
g3
tp6146
(Ntp6147
s(g12
g6
I134
g3
tp6148
(Ntp6149
s(g1
g2
I62
g3
tp6150
(Ntp6151
s(g21
g6
I73
g3
tp6152
(Ntp6153
s(g18
g25
I19
g3
tp6154
(Ntp6155
s(g18
g6
I154
g3
tp6156
(Ntp6157
s(g12
g6
I107
g13
tp6158
(Ntp6159
s(g24
g6
I86
g3
tp6160
(Ntp6161
s(g1
g25
I67
g13
tp6162
(Ntp6163
s(g1
g2
I116
g13
tp6164
(Ntp6165
s(g9
g2
I110
g13
tp6166
(Ntp6167
s(g9
g6
I169
g3
tp6168
(Ntp6169
s(g12
g6
I68
g13
tp6170
(Ntp6171
s(g1
g2
I78
g13
tp6172
(Ntp6173
s(g18
g6
I200
g3
tp6174
(Ntp6175
s(g12
g6
I76
g3
tp6176
(Ntp6177
s(g21
g6
I112
g13
tp6178
(Ntp6179
s(g24
g25
I125
g13
tp6180
(Ntp6181
s(g18
g25
I76
g13
tp6182
(Ntp6183
s(g12
g6
I141
g3
tp6184
(Ntp6185
s(g12
g6
I125
g13
tp6186
(Ntp6187
s(g1
g2
I87
g13
tp6188
(Ntp6189
s(g21
g6
I141
g13
tp6190
(Ntp6191
s(g18
g25
I133
g13
tp6192
(Ntp6193
s(g9
g2
I69
g13
tp6194
(Ntp6195
s(g24
g25
I100
g13
tp6196
(Ntp6197
s(g9
g2
I79
g3
tp6198
(Ntp6199
s(g9
g2
I128
g13
tp6200
(Ntp6201
s(g21
g6
I207
g3
tp6202
(Ntp6203
s(g18
g6
I34
g3
tp6204
(Ntp6205
s(g1
g2
I56
g13
tp6206
(Ntp6207
s(g12
g2
I5
g3
tp6208
(Ntp6209
s(g21
g6
I102
g13
tp6210
(Ntp6211
s(g24
g25
I83
g13
tp6212
(Ntp6213
s(g24
g6
I17
g13
tp6214
(Ntp6215
s(g24
g25
I15
g13
tp6216
(Ntp6217
s(g1
g2
I119
g3
tp6218
(Ntp6219
s(g9
g2
I18
g13
tp6220
(Ntp6221
s(g9
g6
I126
g3
tp6222
(Ntp6223
s(g21
g6
I179
g13
tp6224
(Ntp6225
s(g18
g6
I57
g3
tp6226
(Ntp6227
s(g24
g25
I122
g13
tp6228
(Ntp6229
s(g18
g25
I62
g3
tp6230
(Ntp6231
s(g18
g6
I185
g13
tp6232
(Ntp6233
s(g9
g2
I63
g13
tp6234
(Ntp6235
s(g1
g6
I80
g3
tp6236
(Ntp6237
s(g1
g6
I198
g3
tp6238
(Ntp6239
s(g1
g25
I36
g13
tp6240
(Ntp6241
s(g21
g25
I68
g3
tp6242
(Ntp6243
s(g12
g6
I118
g13
tp6244
(Ntp6245
s(g1
g25
I62
g13
tp6246
(Ntp6247
s(g24
g25
I9
g3
tp6248
(Ntp6249
s(g9
g6
I79
g13
tp6250
(Ntp6251
s(g1
g6
I98
g3
tp6252
(Ntp6253
s(g18
g25
I69
g3
tp6254
(Ntp6255
s(g12
g6
I35
g13
tp6256
(Ntp6257
s(g12
g6
I111
g13
tp6258
(Ntp6259
s(g1
g25
I84
g3
tp6260
(Ntp6261
s(g21
g25
I47
g3
tp6262
(Ntp6263
s(g18
g6
I208
g3
tp6264
(Ntp6265
s(g12
g6
I88
g13
tp6266
(Ntp6267
s(g24
g6
I96
g13
tp6268
(Ntp6269
s(g1
g2
I74
g13
tp6270
(Ntp6271
s(g18
g6
I106
g13
tp6272
(Ntp6273
s(g24
g6
I156
g3
tp6274
(Ntp6275
s(g1
g6
I200
g3
tp6276
(Ntp6277
s(g18
g2
I7
g3
tp6278
(Ntp6279
s(g21
g6
I116
g13
tp6280
(Ntp6281
s(g1
g25
I42
g3
tp6282
(Ntp6283
s(g18
g25
I72
g13
tp6284
(Ntp6285
s(g18
g6
I71
g13
tp6286
(Ntp6287
s(g12
g6
I113
g13
tp6288
(Ntp6289
s(g21
g6
I129
g13
tp6290
(Ntp6291
s(g18
g2
I10
g3
tp6292
(Ntp6293
s(g18
g6
I108
g3
tp6294
(Ntp6295
s(g24
g25
I104
g13
tp6296
(Ntp6297
s(g1
g25
I117
g13
tp6298
(Ntp6299
s(g9
g2
I132
g13
tp6300
(Ntp6301
s(g9
g25
I36
g3
tp6302
(Ntp6303
s(g1
g2
I107
g3
tp6304
(Ntp6305
s(g1
g2
I36
g13
tp6306
(Ntp6307
s(g21
g6
I154
g13
tp6308
(Ntp6309
s(g24
g25
I87
g13
tp6310
(Ntp6311
s(g1
g25
I15
g3
tp6312
(Ntp6313
s(g18
g6
I169
g3
tp6314
(Ntp6315
s(g18
g25
I86
g13
tp6316
(Ntp6317
s(g9
g2
I22
g13
tp6318
(Ntp6319
s(g24
g25
I91
g3
tp6320
(Ntp6321
s(g18
g2
I17
g3
tp6322
(Ntp6323
s(g21
g6
I44
g13
tp6324
(Ntp6325
s(g21
g6
I146
g3
tp6326
(Ntp6327
s(g12
g6
I127
g3
tp6328
(Ntp6329
s(g18
g25
I82
g3
tp6330
(Ntp6331
s(g9
g25
I65
g3
tp6332
(Ntp6333
s(g24
g25
I126
g13
tp6334
(Ntp6335
s(g24
g6
I45
g3
tp6336
(Ntp6337
s(g9
g2
I35
g13
tp6338
(Ntp6339
s(g21
g6
I5
g13
tp6340
(Ntp6341
s(g24
g6
I114
g13
tp6342
(Ntp6343
s(g24
g2
I120
g13
tp6344
(Ntp6345
s(g12
g2
I58
g3
tp6346
(Ntp6347
s(g9
g2
I8
g13
tp6348
(Ntp6349
s(g21
g6
I117
g3
tp6350
(Ntp6351
s(g9
g6
I83
g13
tp6352
(Ntp6353
s(g21
g6
I82
g13
tp6354
(Ntp6355
s(g21
g25
I51
g3
tp6356
(Ntp6357
s(g24
g6
I119
g3
tp6358
(Ntp6359
s(g9
g2
I85
g13
tp6360
(Ntp6361
s(g24
g6
I42
g3
tp6362
(Ntp6363
s(g21
g6
I171
g3
tp6364
(Ntp6365
s(g1
g2
I79
g13
tp6366
(Ntp6367
s(g24
g6
I120
g3
tp6368
(Ntp6369
s(g12
g6
I92
g13
tp6370
(Ntp6371
s(g24
g6
I108
g13
tp6372
(Ntp6373
s(g18
g2
I15
g3
tp6374
(Ntp6375
s(g1
g6
I88
g13
tp6376
(Ntp6377
s(g1
g6
I147
g3
tp6378
(Ntp6379
s(g21
g25
I101
g3
tp6380
(Ntp6381
s(g18
g25
I68
g13
tp6382
(Ntp6383
s(g24
g2
I104
g13
tp6384
(Ntp6385
s(g18
g6
I59
g13
tp6386
(Ntp6387
s(g12
g2
I52
g3
tp6388
(Ntp6389
s(g1
g25
I121
g13
tp6390
(Ntp6391
s(g21
g6
I113
g13
tp6392
(Ntp6393
s(g18
g6
I162
g3
tp6394
(Ntp6395
s(g9
g2
I94
g13
tp6396
(Ntp6397
s(g24
g6
I110
g3
tp6398
(Ntp6399
s(g18
g25
I82
g13
tp6400
(Ntp6401
s(g9
g2
I26
g13
tp6402
(Ntp6403
s(g21
g6
I88
g3
tp6404
(Ntp6405
s(g18
g6
I45
g13
tp6406
(Ntp6407
s(g18
g6
I206
g3
tp6408
(Ntp6409
s(g21
g6
I32
g13
tp6410
(Ntp6411
s(g12
g2
I63
g3
tp6412
(Ntp6413
s(g24
g25
I66
g13
tp6414
(Ntp6415
s(g9
g2
I39
g13
tp6416
(Ntp6417
s(g12
g25
I50
g3
tp6418
(Ntp6419
s(g21
g6
I10
g3
tp6420
(Ntp6421
s(g12
g6
I181
g3
tp6422
(Ntp6423
s(g9
g6
I64
g3
tp6424
(Ntp6425
s(g21
g6
I57
g13
tp6426
(Ntp6427
s(g1
g6
I70
g3
tp6428
(Ntp6429
s(g12
g2
I83
g3
tp6430
(Ntp6431
s(g12
g6
I209
g3
tp6432
(Ntp6433
s(g24
g2
I10
g13
tp6434
(Ntp6435
s(g9
g25
I28
g3
tp6436
(Ntp6437
s(g9
g2
I116
g13
tp6438
(Ntp6439
s(g1
g25
I48
g3
tp6440
(Ntp6441
s(g21
g6
I86
g13
tp6442
(Ntp6443
s(g12
g6
I184
g3
tp6444
(Ntp6445
s(g18
g6
I28
g13
tp6446
(Ntp6447
s(g21
g6
I113
g3
tp6448
(Ntp6449
s(g1
g6
I88
g3
tp6450
(Ntp6451
s(g12
g2
I41
g3
tp6452
(Ntp6453
s(g21
g6
I47
g13
tp6454
(Ntp6455
s(g18
g25
I56
g3
tp6456
(Ntp6457
s(g24
g25
I10
g13
tp6458
(Ntp6459
s(g24
g6
I39
g3
tp6460
(Ntp6461
s(g24
g6
I104
g13
tp6462
(Ntp6463
s(g9
g25
I119
g3
tp6464
(Ntp6465
s(g9
g6
I189
g13
tp6466
(Ntp6467
s(g1
g25
I43
g3
tp6468
(Ntp6469
s(g24
g25
I119
g3
tp6470
(Ntp6471
s(g1
g6
I72
g3
tp6472
(Ntp6473
s(g18
g25
I64
g13
tp6474
(Ntp6475
s(g24
g2
I116
g13
tp6476
(Ntp6477
s(g18
g6
I63
g13
tp6478
(Ntp6479
s(g9
g25
I37
g3
tp6480
(Ntp6481
s(g1
g25
I62
g3
tp6482
(Ntp6483
s(g1
g25
I125
g13
tp6484
(Ntp6485
s(g24
g2
I91
g13
tp6486
(Ntp6487
s(g12
g25
I11
g3
tp6488
(Ntp6489
s(g24
g2
I31
g13
tp6490
(Ntp6491
s(g18
g6
I149
g3
tp6492
(Ntp6493
s(g21
g6
I200
g3
tp6494
(Ntp6495
s(g21
g2
I65
g3
tp6496
(Ntp6497
s(g24
g2
I66
g13
tp6498
(Ntp6499
s(g21
g25
I23
g3
tp6500
(Ntp6501
s(g1
g25
I143
g3
tp6502
(Ntp6503
s(g12
g25
I22
g3
tp6504
(Ntp6505
s(g21
g6
I36
g13
tp6506
(Ntp6507
s(g9
g2
I83
g3
tp6508
(Ntp6509
s(g9
g2
I22
g3
tp6510
(Ntp6511
s(g9
g2
I43
g13
tp6512
(Ntp6513
s(g18
g6
I70
g3
tp6514
(Ntp6515
s(g21
g6
I102
g3
tp6516
(Ntp6517
s(g12
g6
I50
g3
tp6518
(Ntp6519
s(g1
g2
I61
g3
tp6520
(Ntp6521
s(g1
g6
I21
g13
tp6522
(Ntp6523
s(g21
g6
I61
g13
tp6524
(Ntp6525
s(g24
g25
I56
g13
tp6526
(Ntp6527
s(g18
g25
I108
g3
tp6528
(Ntp6529
s(g9
g2
I1
g3
tp6530
(Ntp6531
s(g9
g6
I226
g3
tp6532
(Ntp6533
s(g18
g25
I49
g13
tp6534
(Ntp6535
s(g9
g6
I193
g3
tp6536
(Ntp6537
s(g1
g6
I122
g13
tp6538
(Ntp6539
s(g21
g6
I74
g13
tp6540
(Ntp6541
s(g9
g6
I70
g3
tp6542
(Ntp6543
s(g18
g25
I99
g3
tp6544
(Ntp6545
s(g24
g25
I35
g13
tp6546
(Ntp6547
s(g12
g6
I41
g3
tp6548
(Ntp6549
s(g9
g2
I93
g13
tp6550
(Ntp6551
s(g1
g6
I22
g3
tp6552
(Ntp6553
s(g1
g6
I99
g13
tp6554
(Ntp6555
s(g24
g2
I73
g13
tp6556
(Ntp6557
s(g21
g6
I35
g13
tp6558
(Ntp6559
s(g24
g25
I83
g3
tp6560
(Ntp6561
s(g21
g25
I9
g3
tp6562
(Ntp6563
s(g24
g6
I84
g13
tp6564
(Ntp6565
s(g24
g2
I13
g13
tp6566
(Ntp6567
s(g18
g6
I184
g3
tp6568
(Ntp6569
s(g18
g2
I66
g3
tp6570
(Ntp6571
s(g12
g2
I85
g13
tp6572
(Ntp6573
s(g24
g2
I112
g13
tp6574
(Ntp6575
s(g18
g6
I51
g13
tp6576
(Ntp6577
s(g24
g6
I89
g3
tp6578
(Ntp6579
s(g9
g2
I29
g13
tp6580
(Ntp6581
s(g12
g25
I12
g13
tp6582
(Ntp6583
s(g1
g25
I97
g13
tp6584
(Ntp6585
s(g1
g25
I104
g3
tp6586
(Ntp6587
s(g18
g6
I163
g3
tp6588
(Ntp6589
s(g21
g2
I42
g13
tp6590
(Ntp6591
s(g18
g6
I18
g3
tp6592
(Ntp6593
s(g12
g6
I192
g3
tp6594
(Ntp6595
s(g24
g6
I66
g3
tp6596
(Ntp6597
s(g24
g2
I78
g13
tp6598
(Ntp6599
s(g9
g25
I102
g13
tp6600
(Ntp6601
s(g18
g6
I182
g3
tp6602
(Ntp6603
s(g9
g2
I119
g3
tp6604
(Ntp6605
s(g1
g6
I104
g13
tp6606
(Ntp6607
s(g1
g2
I117
g13
tp6608
(Ntp6609
s(g12
g2
I39
g3
tp6610
(Ntp6611
s(g12
g2
I68
g13
tp6612
(Ntp6613
s(g18
g25
I14
g3
tp6614
(Ntp6615
s(g9
g6
I65
g3
tp6616
(Ntp6617
s(g1
g6
I71
g3
tp6618
(Ntp6619
s(g1
g6
I17
g13
tp6620
(Ntp6621
s(g1
g6
I175
g3
tp6622
(Ntp6623
s(g21
g25
I84
g3
tp6624
(Ntp6625
s(g1
g25
I86
g3
tp6626
(Ntp6627
s(g18
g6
I153
g3
tp6628
(Ntp6629
s(g12
g6
I185
g3
tp6630
(Ntp6631
s(g1
g6
I70
g13
tp6632
(Ntp6633
s(g18
g25
I21
g3
tp6634
(Ntp6635
s(g18
g6
I189
g3
tp6636
(Ntp6637
s(g24
g25
I39
g13
tp6638
(Ntp6639
s(g9
g2
I65
g13
tp6640
(Ntp6641
s(g1
g6
I111
g13
tp6642
(Ntp6643
s(g21
g6
I32
g3
tp6644
(Ntp6645
s(g21
g6
I39
g13
tp6646
(Ntp6647
s(g21
g6
I180
g3
tp6648
(Ntp6649
s(g18
g2
I8
g3
tp6650
(Ntp6651
s(g21
g6
I12
g3
tp6652
(Ntp6653
s(g1
g2
I116
g3
tp6654
(Ntp6655
s(g9
g25
I38
g3
tp6656
(Ntp6657
s(g21
g25
I106
g3
tp6658
(Ntp6659
s(g24
g6
I151
g13
tp6660
(Ntp6661
s(g1
g25
I26
g3
tp6662
(Ntp6663
s(g12
g25
I65
g3
tp6664
(Ntp6665
s(g24
g2
I124
g13
tp6666
(Ntp6667
s(g24
g25
I128
g13
tp6668
(Ntp6669
s(g9
g6
I55
g3
tp6670
(Ntp6671
s(g9
g25
I63
g13
tp6672
(Ntp6673
s(g24
g6
I191
g3
tp6674
(Ntp6675
s(g18
g2
I78
g3
tp6676
(Ntp6677
s(g18
g6
I171
g3
tp6678
(Ntp6679
s(g21
g2
I46
g13
tp6680
(Ntp6681
s(g9
g6
I224
g13
tp6682
(Ntp6683
s(g18
g25
I11
g3
tp6684
(Ntp6685
s(g12
g25
I93
g13
tp6686
(Ntp6687
s(g12
g25
I23
g3
tp6688
(Ntp6689
s(g24
g2
I74
g13
tp6690
(Ntp6691
s(g9
g25
I98
g13
tp6692
(Ntp6693
s(g24
g25
I93
g3
tp6694
(Ntp6695
s(g1
g6
I91
g3
tp6696
(Ntp6697
s(g18
g25
I106
g13
tp6698
(Ntp6699
s(g18
g2
I97
g3
tp6700
(Ntp6701
s(g21
g6
I130
g3
tp6702
(Ntp6703
s(g1
g25
I143
g13
tp6704
(Ntp6705
s(g9
g25
I79
g3
tp6706
(Ntp6707
s(g12
g25
I118
g13
tp6708
(Ntp6709
s(g12
g2
I56
g3
tp6710
(Ntp6711
s(g21
g2
I48
g13
tp6712
(Ntp6713
s(g9
g2
I61
g3
tp6714
(Ntp6715
s(g12
g2
I25
g3
tp6716
(Ntp6717
s(g18
g25
I3
g13
tp6718
(Ntp6719
s(g1
g6
I29
g13
tp6720
(Ntp6721
s(g12
g25
I75
g13
tp6722
(Ntp6723
s(g12
g6
I178
g3
tp6724
(Ntp6725
s(g18
g25
I9
g13
tp6726
(Ntp6727
s(g24
g2
I47
g13
tp6728
(Ntp6729
s(g21
g6
I169
g3
tp6730
(Ntp6731
s(g1
g6
I66
g13
tp6732
(Ntp6733
s(g18
g2
I18
g13
tp6734
(Ntp6735
s(g24
g6
I122
g3
tp6736
(Ntp6737
s(g18
g6
I53
g3
tp6738
(Ntp6739
s(g18
g2
I79
g13
tp6740
(Ntp6741
s(g21
g6
I188
g3
tp6742
(Ntp6743
s(g21
g6
I27
g13
tp6744
(Ntp6745
s(g1
g6
I107
g13
tp6746
(Ntp6747
s(g12
g2
I17
g3
tp6748
(Ntp6749
s(g9
g2
I43
g3
tp6750
(Ntp6751
s(g9
g6
I133
g13
tp6752
(Ntp6753
s(g24
g6
I147
g13
tp6754
(Ntp6755
s(g12
g2
I9
g13
tp6756
(Ntp6757
s(g24
g25
I132
g13
tp6758
(Ntp6759
s(g12
g6
I3
g3
tp6760
(Ntp6761
s(g24
g2
I14
g3
tp6762
(Ntp6763
s(g9
g6
I238
g13
tp6764
(Ntp6765
s(g12
g25
I4
g13
tp6766
(Ntp6767
s(g1
g6
I206
g13
tp6768
(Ntp6769
s(g21
g2
I34
g13
tp6770
(Ntp6771
s(g9
g6
I228
g13
tp6772
(Ntp6773
s(g9
g6
I155
g13
tp6774
(Ntp6775
s(g12
g25
I89
g13
tp6776
(Ntp6777
s(g18
g6
I146
g3
tp6778
(Ntp6779
s(g12
g2
I40
g13
tp6780
(Ntp6781
s(g24
g2
I86
g13
tp6782
(Ntp6783
s(g9
g25
I110
g13
tp6784
(Ntp6785
s(g21
g6
I55
g3
tp6786
(Ntp6787
s(g1
g6
I33
g13
tp6788
(Ntp6789
s(g12
g6
I187
g13
tp6790
(Ntp6791
s(g21
g2
I23
g3
tp6792
(Ntp6793
s(g18
g6
I89
g13
tp6794
(Ntp6795
s(g21
g25
I62
g13
tp6796
(Ntp6797
s(g12
g25
I114
g13
tp6798
(Ntp6799
s(g21
g2
I52
g13
tp6800
(Ntp6801
s(g1
g25
I50
g3
tp6802
(Ntp6803
s(g9
g25
I119
g13
tp6804
(Ntp6805
s(g21
g6
I58
g3
tp6806
(Ntp6807
s(g12
g6
I208
g13
tp6808
(Ntp6809
s(g18
g25
I31
g13
tp6810
(Ntp6811
s(g12
g6
I133
g3
tp6812
(Ntp6813
s(g12
g6
I186
g3
tp6814
(Ntp6815
s(g12
g25
I71
g13
tp6816
(Ntp6817
s(g12
g2
I67
g3
tp6818
(Ntp6819
s(g18
g25
I121
g3
tp6820
(Ntp6821
s(g12
g2
I6
g3
tp6822
(Ntp6823
s(g1
g6
I47
g3
tp6824
(Ntp6825
s(g24
g2
I43
g13
tp6826
(Ntp6827
s(g9
g25
I12
g3
tp6828
(Ntp6829
s(g1
g25
I61
g3
tp6830
(Ntp6831
s(g12
g6
I141
g13
tp6832
(Ntp6833
s(g12
g25
I101
g3
tp6834
(Ntp6835
s(g1
g25
I96
g3
tp6836
(Ntp6837
s(g18
g2
I22
g13
tp6838
(Ntp6839
s(g1
g2
I80
g3
tp6840
(Ntp6841
s(g21
g6
I33
g3
tp6842
(Ntp6843
s(g12
g6
I86
g3
tp6844
(Ntp6845
s(g9
g25
I97
g13
tp6846
(Ntp6847
s(g18
g2
I67
g13
tp6848
(Ntp6849
s(g1
g6
I119
g13
tp6850
(Ntp6851
s(g18
g25
I47
g3
tp6852
(Ntp6853
s(g9
g25
I39
g3
tp6854
(Ntp6855
s(g1
g25
I27
g3
tp6856
(Ntp6857
s(g9
g6
I137
g13
tp6858
(Ntp6859
s(g12
g6
I147
g3
tp6860
(Ntp6861
s(g9
g2
I21
g3
tp6862
(Ntp6863
s(g12
g2
I13
g13
tp6864
(Ntp6865
s(g18
g6
I151
g3
tp6866
(Ntp6867
s(g24
g25
I136
g13
tp6868
(Ntp6869
s(g9
g25
I50
g3
tp6870
(Ntp6871
s(g21
g25
I92
g3
tp6872
(Ntp6873
s(g9
g6
I242
g13
tp6874
(Ntp6875
s(g1
g6
I202
g13
tp6876
(Ntp6877
s(g21
g2
I38
g13
tp6878
(Ntp6879
s(g12
g25
I123
g3
tp6880
(Ntp6881
s(g12
g6
I194
g13
tp6882
(Ntp6883
s(g18
g6
I197
g3
tp6884
(Ntp6885
s(g9
g6
I159
g13
tp6886
(Ntp6887
s(g12
g25
I85
g13
tp6888
(Ntp6889
s(g1
g6
I63
g13
tp6890
(Ntp6891
s(g21
g6
I63
g3
tp6892
(Ntp6893
s(g12
g2
I44
g13
tp6894
(Ntp6895
s(g21
g2
I81
g3
tp6896
(Ntp6897
s(g18
g25
I70
g3
tp6898
(Ntp6899
s(g9
g25
I106
g13
tp6900
(Ntp6901
s(g12
g6
I191
g13
tp6902
(Ntp6903
s(g24
g6
I205
g13
tp6904
(Ntp6905
s(g18
g2
I4
g13
tp6906
(Ntp6907
s(g9
g6
I221
g3
tp6908
(Ntp6909
s(g21
g25
I58
g13
tp6910
(Ntp6911
s(g9
g2
I3
g3
tp6912
(Ntp6913
s(g12
g25
I110
g13
tp6914
(Ntp6915
s(g18
g2
I48
g3
tp6916
(Ntp6917
s(g1
g2
I128
g3
tp6918
(Ntp6919
s(g18
g6
I154
g13
tp6920
(Ntp6921
s(g12
g6
I2
g3
tp6922
(Ntp6923
s(g18
g2
I113
g13
tp6924
(Ntp6925
s(g18
g25
I97
g3
tp6926
(Ntp6927
s(g21
g25
I19
g13
tp6928
(Ntp6929
s(g1
g6
I160
g3
tp6930
(Ntp6931
s(g12
g25
I109
g3
tp6932
(Ntp6933
s(g24
g2
I55
g13
tp6934
(Ntp6935
s(g12
g6
I129
g13
tp6936
(Ntp6937
s(g12
g6
I26
g13
tp6938
(Ntp6939
s(g9
g6
I11
g3
tp6940
(Ntp6941
s(g12
g6
I166
g3
tp6942
(Ntp6943
s(g18
g2
I106
g13
tp6944
(Ntp6945
s(g18
g25
I51
g3
tp6946
(Ntp6947
s(g18
g6
I186
g3
tp6948
(Ntp6949
s(g21
g2
I87
g13
tp6950
(Ntp6951
s(g9
g25
I22
g13
tp6952
(Ntp6953
s(g18
g2
I71
g13
tp6954
(Ntp6955
s(g9
g6
I137
g3
tp6956
(Ntp6957
s(g21
g25
I89
g3
tp6958
(Ntp6959
s(g12
g25
I38
g13
tp6960
(Ntp6961
s(g9
g25
I59
g13
tp6962
(Ntp6963
s(g1
g6
I45
g13
tp6964
(Ntp6965
s(g18
g2
I82
g3
tp6966
(Ntp6967
s(g18
g6
I20
g3
tp6968
(Ntp6969
s(g21
g6
I216
g13
tp6970
(Ntp6971
s(g12
g6
I173
g3
tp6972
(Ntp6973
s(g24
g6
I76
g3
tp6974
(Ntp6975
s(g24
g6
I223
g13
tp6976
(Ntp6977
s(g21
g25
I44
g3
tp6978
(Ntp6979
s(g18
g2
I34
g13
tp6980
(Ntp6981
s(g1
g6
I214
g13
tp6982
(Ntp6983
s(g18
g6
I15
g3
tp6984
(Ntp6985
s(g18
g6
I147
g3
tp6986
(Ntp6987
s(g24
g6
I114
g3
tp6988
(Ntp6989
s(g12
g6
I198
g13
tp6990
(Ntp6991
s(g12
g2
I37
g3
tp6992
(Ntp6993
s(g9
g6
I163
g13
tp6994
(Ntp6995
s(g18
g25
I12
g3
tp6996
(Ntp6997
s(g1
g6
I59
g13
tp6998
(Ntp6999
s(g12
g25
I24
g3
tp7000
(Ntp7001
s(g12
g6
I179
g13
tp7002
(Ntp7003
s(g24
g6
I201
g13
tp7004
(Ntp7005
s(g24
g25
I76
g3
tp7006
(Ntp7007
s(g9
g6
I94
g3
tp7008
(Ntp7009
s(g1
g6
I92
g3
tp7010
(Ntp7011
s(g21
g25
I54
g13
tp7012
(Ntp7013
s(g18
g6
I89
g3
tp7014
(Ntp7015
s(g12
g25
I106
g13
tp7016
(Ntp7017
s(g12
g6
I187
g3
tp7018
(Ntp7019
s(g1
g6
I169
g13
tp7020
(Ntp7021
s(g18
g6
I158
g13
tp7022
(Ntp7023
s(g12
g2
I98
g3
tp7024
(Ntp7025
s(g21
g2
I8
g13
tp7026
(Ntp7027
s(g21
g2
I31
g13
tp7028
(Ntp7029
s(g12
g25
I52
g13
tp7030
(Ntp7031
s(g21
g25
I47
g13
tp7032
(Ntp7033
s(g24
g2
I51
g13
tp7034
(Ntp7035
s(g24
g2
I22
g13
tp7036
(Ntp7037
s(g12
g6
I133
g13
tp7038
(Ntp7039
s(g1
g6
I2
g3
tp7040
(Ntp7041
s(g21
g6
I77
g3
tp7042
(Ntp7043
s(g18
g2
I110
g13
tp7044
(Ntp7045
s(g18
g25
I101
g3
tp7046
(Ntp7047
s(g9
g6
I39
g13
tp7048
(Ntp7049
s(g24
g6
I16
g3
tp7050
(Ntp7051
s(g21
g2
I107
g13
tp7052
(Ntp7053
s(g18
g6
I128
g13
tp7054
(Ntp7055
s(g9
g25
I18
g13
tp7056
(Ntp7057
s(g21
g25
I15
g3
tp7058
(Ntp7059
s(g12
g6
I55
g13
tp7060
(Ntp7061
s(g1
g25
I28
g3
tp7062
(Ntp7063
s(g21
g6
I80
g3
tp7064
(Ntp7065
s(g12
g25
I34
g13
tp7066
(Ntp7067
s(g1
g2
I80
g13
tp7068
(Ntp7069
s(g24
g6
I32
g3
tp7070
(Ntp7071
s(g24
g6
I188
g3
tp7072
(Ntp7073
s(g18
g2
I39
g3
tp7074
(Ntp7075
s(g21
g6
I27
g3
tp7076
(Ntp7077
s(g12
g2
I92
g3
tp7078
(Ntp7079
s(g18
g25
I47
g13
tp7080
(Ntp7081
s(g9
g25
I86
g3
tp7082
(Ntp7083
s(g21
g25
I93
g3
tp7084
(Ntp7085
s(g1
g25
I74
g3
tp7086
(Ntp7087
s(g21
g6
I220
g13
tp7088
(Ntp7089
s(g12
g25
I59
g13
tp7090
(Ntp7091
s(g24
g6
I219
g13
tp7092
(Ntp7093
s(g12
g2
I75
g3
tp7094
(Ntp7095
s(g9
g25
I12
g13
tp7096
(Ntp7097
s(g18
g2
I38
g13
tp7098
(Ntp7099
s(g1
g2
I11
g13
tp7100
(Ntp7101
s(g1
g6
I210
g13
tp7102
(Ntp7103
s(g9
g25
I4
g3
tp7104
(Ntp7105
s(g24
g6
I6
g3
tp7106
(Ntp7107
s(g9
g25
I81
g13
tp7108
(Ntp7109
s(g9
g6
I44
g13
tp7110
(Ntp7111
s(g1
g6
I7
g13
tp7112
(Ntp7113
s(g21
g6
I194
g13
tp7114
(Ntp7115
s(g9
g2
I63
g3
tp7116
(Ntp7117
s(g24
g6
I144
g13
tp7118
(Ntp7119
s(g24
g6
I181
g13
tp7120
(Ntp7121
s(g12
g6
I93
g3
tp7122
(Ntp7123
s(g18
g2
I49
g3
tp7124
(Ntp7125
s(g21
g6
I191
g3
tp7126
(Ntp7127
s(g21
g6
I114
g3
tp7128
(Ntp7129
s(g21
g2
I20
g3
tp7130
(Ntp7131
s(g1
g2
I65
g3
tp7132
(Ntp7133
s(g24
g6
I77
g3
tp7134
(Ntp7135
s(g1
g6
I181
g13
tp7136
(Ntp7137
s(g18
g6
I146
g13
tp7138
(Ntp7139
s(g21
g2
I12
g13
tp7140
(Ntp7141
s(g24
g25
I99
g3
tp7142
(Ntp7143
s(g21
g2
I116
g13
tp7144
(Ntp7145
s(g9
g6
I194
g13
tp7146
(Ntp7147
s(g12
g25
I48
g13
tp7148
(Ntp7149
s(g12
g6
I130
g3
tp7150
(Ntp7151
s(g21
g6
I85
g3
tp7152
(Ntp7153
s(g12
g6
I153
g13
tp7154
(Ntp7155
s(g12
g6
I18
g13
tp7156
(Ntp7157
s(g21
g2
I78
g3
tp7158
(Ntp7159
s(g24
g2
I120
g3
tp7160
(Ntp7161
s(g1
g25
I140
g3
tp7162
(Ntp7163
s(g9
g6
I43
g13
tp7164
(Ntp7165
s(g1
g6
I131
g13
tp7166
(Ntp7167
s(g9
g25
I90
g13
tp7168
(Ntp7169
s(g9
g6
I58
g13
tp7170
(Ntp7171
s(g18
g6
I132
g13
tp7172
(Ntp7173
s(g12
g25
I67
g13
tp7174
(Ntp7175
s(g9
g25
I30
g13
tp7176
(Ntp7177
s(g12
g6
I11
g13
tp7178
(Ntp7179
s(g12
g25
I30
g13
tp7180
(Ntp7181
s(g24
g6
I51
g3
tp7182
(Ntp7183
s(g21
g25
I78
g13
tp7184
(Ntp7185
s(g1
g6
I179
g3
tp7186
(Ntp7187
s(g9
g6
I173
g3
tp7188
(Ntp7189
s(g21
g6
I208
g13
tp7190
(Ntp7191
s(g24
g6
I36
g3
tp7192
(Ntp7193
s(g12
g25
I55
g13
tp7194
(Ntp7195
s(g18
g6
I148
g3
tp7196
(Ntp7197
s(g9
g2
I115
g3
tp7198
(Ntp7199
s(g9
g25
I8
g13
tp7200
(Ntp7201
s(g18
g2
I58
g13
tp7202
(Ntp7203
s(g12
g6
I29
g13
tp7204
(Ntp7205
s(g9
g25
I93
g13
tp7206
(Ntp7207
s(g18
g6
I194
g3
tp7208
(Ntp7209
s(g9
g6
I122
g3
tp7210
(Ntp7211
s(g1
g6
I136
g13
tp7212
(Ntp7213
s(g18
g2
I64
g3
tp7214
(Ntp7215
s(g21
g6
I198
g13
tp7216
(Ntp7217
s(g21
g6
I56
g3
tp7218
(Ntp7219
s(g24
g6
I177
g13
tp7220
(Ntp7221
s(g12
g6
I135
g3
tp7222
(Ntp7223
s(g12
g25
I46
g3
tp7224
(Ntp7225
s(g9
g6
I25
g13
tp7226
(Ntp7227
s(g1
g6
I177
g13
tp7228
(Ntp7229
s(g9
g2
I121
g3
tp7230
(Ntp7231
s(g9
g2
I23
g13
tp7232
(Ntp7233
s(g18
g6
I150
g13
tp7234
(Ntp7235
s(g24
g25
I97
g13
tp7236
(Ntp7237
s(g24
g6
I216
g13
tp7238
(Ntp7239
s(g18
g6
I28
g3
tp7240
(Ntp7241
s(g24
g25
I43
g3
tp7242
(Ntp7243
s(g1
g2
I69
g3
tp7244
(Ntp7245
s(g9
g6
I198
g13
tp7246
(Ntp7247
s(g1
g6
I102
g3
tp7248
(Ntp7249
s(g9
g6
I231
g13
tp7250
(Ntp7251
s(g18
g25
I4
g3
tp7252
(Ntp7253
s(g12
g6
I22
g13
tp7254
(Ntp7255
s(g24
g6
I22
g13
tp7256
(Ntp7257
s(g1
g25
I80
g3
tp7258
(Ntp7259
s(g21
g2
I121
g13
tp7260
(Ntp7261
s(g9
g6
I4
g3
tp7262
(Ntp7263
s(g18
g2
I105
g3
tp7264
(Ntp7265
s(g9
g6
I47
g13
tp7266
(Ntp7267
s(g1
g6
I143
g13
tp7268
(Ntp7269
s(g18
g25
I52
g3
tp7270
(Ntp7271
s(g24
g6
I144
g3
tp7272
(Ntp7273
s(g12
g25
I26
g13
tp7274
(Ntp7275
s(g21
g25
I74
g13
tp7276
(Ntp7277
s(g9
g25
I87
g3
tp7278
(Ntp7279
s(g21
g25
I97
g3
tp7280
(Ntp7281
s(g21
g25
I94
g3
tp7282
(Ntp7283
s(g21
g25
I117
g13
tp7284
(Ntp7285
s(g24
g6
I55
g13
tp7286
(Ntp7287
s(g9
g25
I47
g13
tp7288
(Ntp7289
s(g18
g6
I10
g13
tp7290
(Ntp7291
s(g24
g25
I23
g3
tp7292
(Ntp7293
s(g1
g6
I104
g3
tp7294
(Ntp7295
s(g21
g6
I212
g13
tp7296
(Ntp7297
s(g21
g6
I155
g3
tp7298
(Ntp7299
s(g9
g6
I74
g13
tp7300
(Ntp7301
s(g12
g25
I51
g13
tp7302
(Ntp7303
s(g9
g25
I5
g3
tp7304
(Ntp7305
s(g18
g2
I6
g3
tp7306
(Ntp7307
s(g18
g2
I62
g13
tp7308
(Ntp7309
s(g12
g6
I17
g13
tp7310
(Ntp7311
s(g12
g6
I106
g13
tp7312
(Ntp7313
s(g21
g6
I225
g13
tp7314
(Ntp7315
s(g1
g25
I66
g13
tp7316
(Ntp7317
s(g12
g25
I43
g3
tp7318
(Ntp7319
s(g21
g25
I84
g13
tp7320
(Ntp7321
s(g18
g6
I181
g3
tp7322
(Ntp7323
s(g1
g25
I21
g13
tp7324
(Ntp7325
s(g9
g25
I89
g13
tp7326
(Ntp7327
s(g24
g6
I134
g3
tp7328
(Ntp7329
s(g12
g6
I71
g13
tp7330
(Ntp7331
s(g18
g2
I29
g3
tp7332
(Ntp7333
s(g1
g2
I130
g3
tp7334
(Ntp7335
s(g18
g25
I86
g3
tp7336
(Ntp7337
s(g12
g6
I4
g3
tp7338
(Ntp7339
s(g9
g2
I118
g13
tp7340
(Ntp7341
s(g9
g2
I51
g3
tp7342
(Ntp7343
s(g1
g2
I86
g13
tp7344
(Ntp7345
s(g21
g6
I140
g13
tp7346
(Ntp7347
s(g1
g6
I189
g13
tp7348
(Ntp7349
s(g18
g6
I102
g3
tp7350
(Ntp7351
s(g12
g6
I31
g3
tp7352
(Ntp7353
s(g24
g25
I101
g13
tp7354
(Ntp7355
s(g1
g2
I93
g3
tp7356
(Ntp7357
s(g24
g6
I196
g13
tp7358
(Ntp7359
s(g9
g2
I131
g13
tp7360
(Ntp7361
s(g1
g2
I59
g13
tp7362
(Ntp7363
s(g21
g25
I103
g13
tp7364
(Ntp7365
s(g21
g6
I101
g13
tp7366
(Ntp7367
s(g24
g6
I18
g13
tp7368
(Ntp7369
s(g24
g25
I12
g13
tp7370
(Ntp7371
s(g9
g2
I104
g13
tp7372
(Ntp7373
s(g9
g6
I51
g13
tp7374
(Ntp7375
s(g21
g6
I183
g3
tp7376
(Ntp7377
s(g12
g6
I73
g3
tp7378
(Ntp7379
s(g21
g6
I178
g13
tp7380
(Ntp7381
s(g1
g6
I139
g13
tp7382
(Ntp7383
s(g12
g2
I27
g13
tp7384
(Ntp7385
s(g24
g6
I23
g3
tp7386
(Ntp7387
s(g24
g25
I123
g13
tp7388
(Ntp7389
s(g24
g25
I115
g3
tp7390
(Ntp7391
s(g21
g25
I105
g3
tp7392
(Ntp7393
s(g21
g25
I70
g13
tp7394
(Ntp7395
s(g1
g25
I39
g13
tp7396
(Ntp7397
s(g21
g25
I113
g13
tp7398
(Ntp7399
s(g24
g6
I51
g13
tp7400
(Ntp7401
s(g24
g6
I12
g13
tp7402
(Ntp7403
s(g24
g6
I69
g3
tp7404
(Ntp7405
s(g12
g2
I48
g3
tp7406
(Ntp7407
s(g18
g2
I98
g3
tp7408
(Ntp7409
s(g1
g6
I51
g3
tp7410
(Ntp7411
s(g9
g6
I78
g13
tp7412
(Ntp7413
s(g24
g6
I121
g3
tp7414
(Ntp7415
s(g12
g6
I110
g13
tp7416
(Ntp7417
s(g18
g6
I195
g3
tp7418
(Ntp7419
s(g18
g2
I9
g13
tp7420
(Ntp7421
s(g1
g25
I70
g13
tp7422
(Ntp7423
s(g24
g6
I98
g3
tp7424
(Ntp7425
s(g1
g25
I25
g13
tp7426
(Ntp7427
s(g9
g25
I69
g13
tp7428
(Ntp7429
s(g12
g6
I91
g13
tp7430
(Ntp7431
s(g1
g6
I153
g3
tp7432
(Ntp7433
s(g9
g6
I69
g3
tp7434
(Ntp7435
s(g9
g2
I122
g13
tp7436
(Ntp7437
s(g21
g6
I154
g3
tp7438
(Ntp7439
s(g12
g6
I112
g13
tp7440
(Ntp7441
s(g1
g2
I82
g13
tp7442
(Ntp7443
s(g21
g6
I128
g13
tp7444
(Ntp7445
s(g1
g6
I103
g3
tp7446
(Ntp7447
s(g1
g2
I45
g13
tp7448
(Ntp7449
s(g12
g2
I95
g3
tp7450
(Ntp7451
s(g1
g25
I56
g13
tp7452
(Ntp7453
s(g24
g25
I105
g13
tp7454
(Ntp7455
s(g21
g2
I63
g3
tp7456
(Ntp7457
s(g12
g6
I45
g13
tp7458
(Ntp7459
s(g1
g2
I39
g13
tp7460
(Ntp7461
s(g18
g6
I156
g3
tp7462
(Ntp7463
s(g21
g6
I153
g13
tp7464
(Ntp7465
s(g12
g2
I1
g13
tp7466
(Ntp7467
s(g24
g6
I30
g13
tp7468
(Ntp7469
s(g21
g6
I86
g3
tp7470
(Ntp7471
s(g24
g25
I16
g13
tp7472
(Ntp7473
s(g18
g25
I53
g3
tp7474
(Ntp7475
s(g1
g2
I76
g13
tp7476
(Ntp7477
s(g1
g6
I151
g13
tp7478
(Ntp7479
s(g9
g6
I114
g3
tp7480
(Ntp7481
s(g24
g25
I127
g13
tp7482
(Ntp7483
s(g21
g25
I95
g3
tp7484
(Ntp7485
s(g1
g25
I39
g3
tp7486
(Ntp7487
s(g18
g6
I188
g13
tp7488
(Ntp7489
s(g9
g2
I34
g13
tp7490
(Ntp7491
s(g9
g6
I105
g13
tp7492
(Ntp7493
s(g21
g6
I148
g3
tp7494
(Ntp7495
s(g1
g25
I43
g13
tp7496
(Ntp7497
s(g12
g2
I73
g3
tp7498
(Ntp7499
s(g21
g6
I143
g13
tp7500
(Ntp7501
s(g24
g6
I8
g13
tp7502
(Ntp7503
s(g18
g25
I122
g3
tp7504
(Ntp7505
s(g9
g25
I57
g3
tp7506
(Ntp7507
s(g9
g25
I6
g3
tp7508
(Ntp7509
s(g24
g25
I102
g13
tp7510
(Ntp7511
s(g24
g2
I33
g3
tp7512
(Ntp7513
s(g1
g25
I58
g3
tp7514
(Ntp7515
s(g18
g6
I213
g13
tp7516
(Ntp7517
s(g9
g6
I82
g13
tp7518
(Ntp7519
s(g9
g6
I23
g3
tp7520
(Ntp7521
s(g9
g2
I72
g3
tp7522
(Ntp7523
s(g18
g2
I110
g3
tp7524
(Ntp7525
s(g21
g2
I73
g13
tp7526
(Ntp7527
s(g12
g6
I98
g13
tp7528
(Ntp7529
s(g24
g2
I54
g3
tp7530
(Ntp7531
s(g9
g6
I127
g13
tp7532
(Ntp7533
s(g21
g2
I77
g3
tp7534
(Ntp7535
s(g1
g25
I29
g13
tp7536
(Ntp7537
s(g21
g25
I27
g3
tp7538
(Ntp7539
s(g12
g6
I95
g13
tp7540
(Ntp7541
s(g24
g25
I125
g3
tp7542
(Ntp7543
s(g9
g2
I18
g3
tp7544
(Ntp7545
s(g21
g6
I98
g3
tp7546
(Ntp7547
s(g12
g6
I132
g3
tp7548
(Ntp7549
s(g9
g25
I47
g3
tp7550
(Ntp7551
s(g18
g6
I58
g13
tp7552
(Ntp7553
s(g1
g2
I49
g3
tp7554
(Ntp7555
s(g12
g6
I116
g13
tp7556
(Ntp7557
s(g24
g6
I125
g3
tp7558
(Ntp7559
s(g21
g6
I132
g13
tp7560
(Ntp7561
s(g1
g2
I41
g13
tp7562
(Ntp7563
s(g9
g2
I29
g3
tp7564
(Ntp7565
s(g24
g25
I109
g13
tp7566
(Ntp7567
s(g9
g2
I118
g3
tp7568
(Ntp7569
s(g12
g6
I33
g13
tp7570
(Ntp7571
s(g12
g6
I210
g3
tp7572
(Ntp7573
s(g18
g2
I75
g3
tp7574
(Ntp7575
s(g21
g6
I157
g13
tp7576
(Ntp7577
s(g24
g25
I88
g13
tp7578
(Ntp7579
s(g21
g2
I91
g3
tp7580
(Ntp7581
s(g24
g25
I20
g13
tp7582
(Ntp7583
s(g18
g25
I81
g13
tp7584
(Ntp7585
s(g24
g25
I67
g13
tp7586
(Ntp7587
s(g12
g6
I201
g3
tp7588
(Ntp7589
s(g24
g6
I33
g13
tp7590
(Ntp7591
s(g9
g2
I38
g13
tp7592
(Ntp7593
s(g24
g6
I38
g3
tp7594
(Ntp7595
s(g12
g2
I49
g3
tp7596
(Ntp7597
s(g9
g2
I11
g3
tp7598
(Ntp7599
s(g21
g6
I56
g13
tp7600
(Ntp7601
s(g24
g6
I127
g13
tp7602
(Ntp7603
s(g18
g6
I201
g13
tp7604
(Ntp7605
s(g9
g2
I15
g13
tp7606
(Ntp7607
s(g9
g6
I86
g13
tp7608
(Ntp7609
s(g21
g6
I85
g13
tp7610
(Ntp7611
s(g18
g6
I175
g3
tp7612
(Ntp7613
s(g12
g6
I35
g3
tp7614
(Ntp7615
s(g12
g6
I102
g13
tp7616
(Ntp7617
s(g9
g2
I88
g13
tp7618
(Ntp7619
s(g9
g6
I3
g13
tp7620
(Ntp7621
s(g1
g25
I1
g13
tp7622
(Ntp7623
s(g1
g25
I8
g3
tp7624
(Ntp7625
s(g12
g25
I19
g3
tp7626
(Ntp7627
s(g12
g25
I44
g3
tp7628
(Ntp7629
s(g18
g6
I178
g3
tp7630
(Ntp7631
s(g12
g6
I83
g13
tp7632
(Ntp7633
s(g24
g6
I105
g13
tp7634
(Ntp7635
s(g9
g6
I74
g3
tp7636
(Ntp7637
s(g24
g6
I47
g3
tp7638
(Ntp7639
s(g21
g6
I23
g3
tp7640
(Ntp7641
s(g12
g2
I72
g3
tp7642
(Ntp7643
s(g21
g2
I119
g3
tp7644
(Ntp7645
s(g21
g6
I167
g13
tp7646
(Ntp7647
s(g24
g2
I117
g13
tp7648
(Ntp7649
s(g18
g6
I62
g13
tp7650
(Ntp7651
s(g12
g6
I72
g13
tp7652
(Ntp7653
s(g9
g6
I197
g3
tp7654
(Ntp7655
s(g18
g25
I2
g3
tp7656
(Ntp7657
s(g9
g25
I17
g3
tp7658
(Ntp7659
s(g1
g2
I21
g13
tp7660
(Ntp7661
s(g12
g2
I71
g3
tp7662
(Ntp7663
s(g1
g25
I82
g3
tp7664
(Ntp7665
s(g18
g6
I12
g3
tp7666
(Ntp7667
s(g1
g25
I124
g13
tp7668
(Ntp7669
s(g9
g6
I33
g3
tp7670
(Ntp7671
s(g12
g6
I165
g3
tp7672
(Ntp7673
s(g12
g6
I37
g13
tp7674
(Ntp7675
s(g18
g25
I25
g3
tp7676
(Ntp7677
s(g1
g6
I207
g3
tp7678
(Ntp7679
s(g12
g25
I5
g3
tp7680
(Ntp7681
s(g9
g6
I115
g3
tp7682
(Ntp7683
s(g21
g25
I99
g3
tp7684
(Ntp7685
s(g12
g25
I89
g3
tp7686
(Ntp7687
s(g12
g2
I29
g3
tp7688
(Ntp7689
s(g21
g6
I1
g3
tp7690
(Ntp7691
s(g21
g6
I176
g3
tp7692
(Ntp7693
s(g12
g6
I118
g3
tp7694
(Ntp7695
s(g24
g25
I16
g3
tp7696
(Ntp7697
s(g24
g25
I71
g13
tp7698
(Ntp7699
s(g1
g6
I77
g3
tp7700
(Ntp7701
s(g24
g6
I192
g3
tp7702
(Ntp7703
s(g12
g6
I93
g13
tp7704
(Ntp7705
s(g9
g2
I42
g13
tp7706
(Ntp7707
s(g9
g25
I7
g3
tp7708
(Ntp7709
s(g21
g25
I110
g3
tp7710
(Ntp7711
s(g1
g6
I20
g13
tp7712
(Ntp7713
s(g21
g6
I135
g13
tp7714
(Ntp7715
s(g21
g6
I60
g13
tp7716
(Ntp7717
s(g24
g6
I123
g13
tp7718
(Ntp7719
s(g9
g2
I51
g13
tp7720
(Ntp7721
s(g18
g2
I74
g3
tp7722
(Ntp7723
s(g18
g6
I183
g3
tp7724
(Ntp7725
s(g21
g6
I78
g3
tp7726
(Ntp7727
s(g21
g6
I73
g13
tp7728
(Ntp7729
s(g1
g2
I43
g3
tp7730
(Ntp7731
s(g24
g25
I32
g13
tp7732
(Ntp7733
s(g9
g2
I92
g13
tp7734
(Ntp7735
s(g12
g25
I27
g3
tp7736
(Ntp7737
s(g21
g6
I34
g13
tp7738
(Ntp7739
s(g24
g6
I85
g13
tp7740
(Ntp7741
s(g1
g6
I23
g3
tp7742
(Ntp7743
s(g18
g25
I102
g3
tp7744
(Ntp7745
s(g9
g25
I67
g3
tp7746
(Ntp7747
s(g1
g6
I154
g3
tp7748
(Ntp7749
s(g9
g6
I61
g3
tp7750
(Ntp7751
s(g24
g2
I113
g13
tp7752
(Ntp7753
s(g18
g6
I50
g13
tp7754
(Ntp7755
s(g24
g25
I54
g13
tp7756
(Ntp7757
s(g24
g6
I124
g13
tp7758
(Ntp7759
s(g24
g2
I37
g13
tp7760
(Ntp7761
s(g18
g2
I68
g3
tp7762
(Ntp7763
s(g21
g6
I226
g3
tp7764
(Ntp7765
s(g1
g25
I96
g13
tp7766
(Ntp7767
s(g21
g6
I181
g3
tp7768
(Ntp7769
s(g12
g6
I57
g13
tp7770
(Ntp7771
s(g24
g2
I24
g13
tp7772
(Ntp7773
s(g1
g25
I152
g3
tp7774
(Ntp7775
s(g9
g6
I107
g3
tp7776
(Ntp7777
s(g9
g2
I60
g3
tp7778
(Ntp7779
s(g24
g2
I79
g13
tp7780
(Ntp7781
s(g24
g6
I71
g3
tp7782
(Ntp7783
s(g12
g2
I54
g3
tp7784
(Ntp7785
s(g9
g2
I39
g3
tp7786
(Ntp7787
s(g9
g2
I46
g13
tp7788
(Ntp7789
s(g1
g25
I36
g3
tp7790
(Ntp7791
s(g18
g6
I8
g3
tp7792
(Ntp7793
s(g24
g6
I63
g3
tp7794
(Ntp7795
s(g1
g6
I16
g13
tp7796
(Ntp7797
s(g21
g6
I48
g13
tp7798
(Ntp7799
s(g24
g6
I72
g3
tp7800
(Ntp7801
s(g24
g6
I196
g3
tp7802
(Ntp7803
s(g18
g6
I43
g3
tp7804
(Ntp7805
s(g18
g25
I12
g13
tp7806
(Ntp7807
s(g9
g25
I62
g3
tp7808
(Ntp7809
s(g24
g6
I108
g3
tp7810
(Ntp7811
s(g24
g25
I36
g13
tp7812
(Ntp7813
s(g9
g2
I64
g13
tp7814
(Ntp7815
s(g18
g6
I179
g3
tp7816
(Ntp7817
s(g24
g6
I46
g3
tp7818
(Ntp7819
s(g1
g6
I110
g13
tp7820
(Ntp7821
s(g21
g6
I38
g13
tp7822
(Ntp7823
s(g9
g25
I128
g13
tp7824
(Ntp7825
s(g21
g6
I152
g3
tp7826
(Ntp7827
s(g24
g6
I81
g13
tp7828
(Ntp7829
s(g18
g6
I44
g13
tp7830
(Ntp7831
s(g1
g6
I83
g13
tp7832
(Ntp7833
s(g12
g6
I30
g13
tp7834
(Ntp7835
s(g12
g2
I72
g13
tp7836
(Ntp7837
s(g24
g2
I125
g13
tp7838
(Ntp7839
s(g21
g6
I151
g3
tp7840
(Ntp7841
s(g18
g6
I54
g13
tp7842
(Ntp7843
s(g24
g25
I58
g13
tp7844
(Ntp7845
s(g24
g25
I129
g13
tp7846
(Ntp7847
s(g24
g25
I134
g3
tp7848
(Ntp7849
s(g24
g6
I120
g13
tp7850
(Ntp7851
s(g12
g25
I113
g3
tp7852
(Ntp7853
s(g12
g2
I2
g3
tp7854
(Ntp7855
s(g1
g25
I100
g13
tp7856
(Ntp7857
s(g24
g2
I34
g3
tp7858
(Ntp7859
s(g12
g25
I105
g3
tp7860
(Ntp7861
s(g24
g2
I100
g13
tp7862
(Ntp7863
s(g18
g6
I140
g3
tp7864
(Ntp7865
s(g9
g6
I112
g3
tp7866
(Ntp7867
s(g24
g6
I138
g3
tp7868
(Ntp7869
s(g12
g2
I18
g3
tp7870
(Ntp7871
s(g21
g6
I45
g3
tp7872
(Ntp7873
s(g21
g6
I177
g3
tp7874
(Ntp7875
s(g21
g2
I33
g3
tp7876
(Ntp7877
s(g24
g2
I75
g13
tp7878
(Ntp7879
s(g1
g2
I33
g13
tp7880
(Ntp7881
s(g1
g25
I148
g3
tp7882
(Ntp7883
s(g18
g25
I120
g3
tp7884
(Ntp7885
s(g9
g25
I59
g3
tp7886
(Ntp7887
s(g21
g25
I111
g3
tp7888
(Ntp7889
s(g1
g25
I60
g3
tp7890
(Ntp7891
s(g12
g25
I63
g3
tp7892
(Ntp7893
s(g21
g6
I129
g3
tp7894
(Ntp7895
s(g9
g6
I188
g13
tp7896
(Ntp7897
s(g24
g6
I220
g3
tp7898
(Ntp7899
s(g18
g25
I2
g13
tp7900
(Ntp7901
s(g1
g6
I28
g13
tp7902
(Ntp7903
s(g18
g6
I125
g13
tp7904
(Ntp7905
s(g21
g6
I52
g13
tp7906
(Ntp7907
s(g18
g25
I79
g3
tp7908
(Ntp7909
s(g24
g2
I52
g3
tp7910
(Ntp7911
s(g9
g25
I54
g3
tp7912
(Ntp7913
s(g1
g25
I106
g3
tp7914
(Ntp7915
s(g18
g25
I8
g13
tp7916
(Ntp7917
s(g9
g6
I25
g3
tp7918
(Ntp7919
s(g1
g6
I65
g13
tp7920
(Ntp7921
s(g21
g25
I21
g3
tp7922
(Ntp7923
s(g21
g6
I206
g3
tp7924
(Ntp7925
s(g24
g25
I33
g13
tp7926
(Ntp7927
s(g1
g6
I106
g13
tp7928
(Ntp7929
s(g21
g6
I90
g13
tp7930
(Ntp7931
s(g18
g6
I153
g13
tp7932
(Ntp7933
s(g12
g25
I86
g3
tp7934
(Ntp7935
s(g9
g2
I31
g3
tp7936
(Ntp7937
s(g18
g2
I91
g13
tp7938
(Ntp7939
s(g21
g6
I227
g3
tp7940
(Ntp7941
s(g18
g6
I6
g3
tp7942
(Ntp7943
s(g12
g6
I191
g3
tp7944
(Ntp7945
s(g21
g2
I116
g3
tp7946
(Ntp7947
s(g1
g2
I97
g3
tp7948
(Ntp7949
s(g24
g25
I62
g13
tp7950
(Ntp7951
s(g24
g25
I133
g13
tp7952
(Ntp7953
s(g24
g6
I100
g13
tp7954
(Ntp7955
s(g24
g6
I109
g3
tp7956
(Ntp7957
s(g9
g6
I237
g13
tp7958
(Ntp7959
s(g1
g6
I164
g3
tp7960
(Ntp7961
s(g21
g6
I221
g3
tp7962
(Ntp7963
s(g12
g6
I162
g3
tp7964
(Ntp7965
s(g12
g25
I88
g13
tp7966
(Ntp7967
s(g21
g2
I107
g3
tp7968
(Ntp7969
s(g18
g25
I92
g3
tp7970
(Ntp7971
s(g24
g2
I24
g3
tp7972
(Ntp7973
s(g1
g25
I113
g13
tp7974
(Ntp7975
s(g24
g2
I87
g13
tp7976
(Ntp7977
s(g12
g6
I186
g13
tp7978
(Ntp7979
s(g9
g6
I235
g3
tp7980
(Ntp7981
s(g9
g6
I108
g3
tp7982
(Ntp7983
s(g12
g2
I30
g3
tp7984
(Ntp7985
s(g12
g25
I113
g13
tp7986
(Ntp7987
s(g12
g6
I28
g3
tp7988
(Ntp7989
s(g21
g2
I55
g13
tp7990
(Ntp7991
s(g24
g6
I83
g3
tp7992
(Ntp7993
s(g9
g25
I118
g13
tp7994
(Ntp7995
s(g18
g25
I30
g13
tp7996
(Ntp7997
s(g1
g6
I24
g13
tp7998
(Ntp7999
s(g18
g6
I113
g13
tp8000
(Ntp8001
s(g21
g25
I57
g3
tp8002
(Ntp8003
s(g12
g25
I70
g13
tp8004
(Ntp8005
s(g18
g6
I136
g3
tp8006
(Ntp8007
s(g24
g2
I40
g13
tp8008
(Ntp8009
s(g18
g25
I115
g13
tp8010
(Ntp8011
s(g1
g6
I77
g13
tp8012
(Ntp8013
s(g18
g2
I21
g13
tp8014
(Ntp8015
s(g18
g6
I180
g3
tp8016
(Ntp8017
s(g9
g25
I39
g13
tp8018
(Ntp8019
s(g24
g6
I41
g3
tp8020
(Ntp8021
s(g18
g2
I66
g13
tp8022
(Ntp8023
s(g1
g25
I14
g3
tp8024
(Ntp8025
s(g1
g6
I118
g13
tp8026
(Ntp8027
s(g21
g6
I94
g13
tp8028
(Ntp8029
s(g9
g6
I90
g3
tp8030
(Ntp8031
s(g24
g6
I174
g3
tp8032
(Ntp8033
s(g12
g2
I69
g3
tp8034
(Ntp8035
s(g18
g6
I14
g3
tp8036
(Ntp8037
s(g18
g25
I78
g3
tp8038
(Ntp8039
s(g1
g6
I91
g13
tp8040
(Ntp8041
s(g1
g2
I55
g3
tp8042
(Ntp8043
s(g1
g2
I114
g3
tp8044
(Ntp8045
s(g12
g2
I12
g13
tp8046
(Ntp8047
s(g24
g25
I2
g13
tp8048
(Ntp8049
s(g21
g25
I20
g3
tp8050
(Ntp8051
s(g9
g6
I241
g13
tp8052
(Ntp8053
s(g9
g6
I113
g3
tp8054
(Ntp8055
s(g1
g6
I201
g13
tp8056
(Ntp8057
s(g1
g2
I101
g3
tp8058
(Ntp8059
s(g1
g6
I6
g3
tp8060
(Ntp8061
s(g12
g2
I19
g3
tp8062
(Ntp8063
s(g21
g6
I182
g3
tp8064
(Ntp8065
s(g12
g25
I84
g13
tp8066
(Ntp8067
s(g1
g25
I1
g3
tp8068
(Ntp8069
s(g24
g6
I138
g13
tp8070
(Ntp8071
s(g9
g6
I100
g3
tp8072
(Ntp8073
s(g24
g25
I73
g3
tp8074
(Ntp8075
s(g12
g6
I190
g13
tp8076
(Ntp8077
s(g18
g25
I64
g3
tp8078
(Ntp8079
s(g9
g6
I135
g13
tp8080
(Ntp8081
s(g12
g25
I109
g13
tp8082
(Ntp8083
s(g24
g6
I176
g3
tp8084
(Ntp8085
s(g18
g2
I72
g3
tp8086
(Ntp8087
s(g21
g6
I76
g3
tp8088
(Ntp8089
s(g9
g25
I63
g3
tp8090
(Ntp8091
s(g9
g25
I114
g13
tp8092
(Ntp8093
s(g9
g25
I55
g3
tp8094
(Ntp8095
s(g18
g2
I112
g13
tp8096
(Ntp8097
s(g21
g25
I65
g3
tp8098
(Ntp8099
s(g24
g25
I134
g13
tp8100
(Ntp8101
s(g21
g25
I42
g3
tp8102
(Ntp8103
s(g18
g6
I117
g13
tp8104
(Ntp8105
s(g12
g25
I66
g13
tp8106
(Ntp8107
s(g18
g2
I71
g3
tp8108
(Ntp8109
s(g12
g6
I79
g13
tp8110
(Ntp8111
s(g24
g2
I52
g13
tp8112
(Ntp8113
s(g18
g2
I26
g3
tp8114
(Ntp8115
s(g12
g6
I128
g13
tp8116
(Ntp8117
s(g1
g2
I130
g13
tp8118
(Ntp8119
s(g18
g25
I79
g13
tp8120
(Ntp8121
s(g18
g2
I105
g13
tp8122
(Ntp8123
s(g12
g25
I91
g13
tp8124
(Ntp8125
s(g9
g25
I77
g3
tp8126
(Ntp8127
s(g9
g25
I108
g13
tp8128
(Ntp8129
s(g18
g2
I70
g13
tp8130
(Ntp8131
s(g1
g6
I114
g13
tp8132
(Ntp8133
s(g24
g6
I166
g3
tp8134
(Ntp8135
s(g18
g2
I61
g3
tp8136
(Ntp8137
s(g21
g2
I16
g3
tp8138
(Ntp8139
s(g24
g2
I2
g13
tp8140
(Ntp8141
s(g9
g6
I140
g13
tp8142
(Ntp8143
s(g21
g25
I87
g3
tp8144
(Ntp8145
s(g9
g2
I17
g13
tp8146
(Ntp8147
s(g1
g25
I142
g13
tp8148
(Ntp8149
s(g1
g6
I165
g3
tp8150
(Ntp8151
s(g18
g2
I81
g3
tp8152
(Ntp8153
s(g21
g6
I210
g3
tp8154
(Ntp8155
s(g1
g6
I213
g13
tp8156
(Ntp8157
s(g21
g2
I74
g3
tp8158
(Ntp8159
s(g24
g2
I76
g13
tp8160
(Ntp8161
s(g1
g25
I136
g3
tp8162
(Ntp8163
s(g9
g6
I162
g13
tp8164
(Ntp8165
s(g12
g25
I80
g13
tp8166
(Ntp8167
s(g9
g2
I41
g3
tp8168
(Ntp8169
s(g1
g6
I58
g13
tp8170
(Ntp8171
s(g21
g6
I46
g3
tp8172
(Ntp8173
s(g12
g6
I178
g13
tp8174
(Ntp8175
s(g21
g2
I69
g3
tp8176
(Ntp8177
s(g21
g2
I46
g3
tp8178
(Ntp8179
s(g24
g6
I55
g3
tp8180
(Ntp8181
s(g9
g6
I139
g13
tp8182
(Ntp8183
s(g12
g25
I105
g13
tp8184
(Ntp8185
s(g9
g6
I73
g13
tp8186
(Ntp8187
s(g1
g6
I35
g13
tp8188
(Ntp8189
s(g9
g25
I56
g3
tp8190
(Ntp8191
s(g9
g25
I126
g13
tp8192
(Ntp8193
s(g12
g2
I15
g13
tp8194
(Ntp8195
s(g12
g6
I171
g13
tp8196
(Ntp8197
s(g12
g6
I156
g3
tp8198
(Ntp8199
s(g18
g6
I105
g13
tp8200
(Ntp8201
s(g24
g6
I56
g3
tp8202
(Ntp8203
s(g24
g6
I211
g3
tp8204
(Ntp8205
s(g12
g2
I97
g3
tp8206
(Ntp8207
s(g24
g6
I101
g3
tp8208
(Ntp8209
s(g12
g6
I195
g3
tp8210
(Ntp8211
s(g24
g2
I48
g13
tp8212
(Ntp8213
s(g24
g2
I78
g3
tp8214
(Ntp8215
s(g12
g6
I132
g13
tp8216
(Ntp8217
s(g18
g2
I109
g13
tp8218
(Ntp8219
s(g12
g25
I87
g13
tp8220
(Ntp8221
s(g21
g2
I83
g3
tp8222
(Ntp8223
s(g21
g2
I106
g13
tp8224
(Ntp8225
s(g18
g2
I90
g13
tp8226
(Ntp8227
s(g12
g6
I189
g13
tp8228
(Ntp8229
s(g1
g6
I185
g3
tp8230
(Ntp8231
s(g24
g2
I14
g13
tp8232
(Ntp8233
s(g9
g25
I38
g13
tp8234
(Ntp8235
s(g1
g6
I40
g13
tp8236
(Ntp8237
s(g9
g2
I117
g3
tp8238
(Ntp8239
s(g12
g25
I103
g3
tp8240
(Ntp8241
s(g12
g2
I4
g13
tp8242
(Ntp8243
s(g18
g6
I142
g3
tp8244
(Ntp8245
s(g24
g25
I136
g3
tp8246
(Ntp8247
s(g21
g6
I122
g3
tp8248
(Ntp8249
s(g1
g2
I89
g3
tp8250
(Ntp8251
s(g1
g6
I209
g13
tp8252
(Ntp8253
s(g9
g25
I76
g3
tp8254
(Ntp8255
s(g1
g25
I150
g3
tp8256
(Ntp8257
s(g21
g6
I74
g3
tp8258
(Ntp8259
s(g18
g6
I188
g3
tp8260
(Ntp8261
s(g9
g6
I166
g13
tp8262
(Ntp8263
s(g12
g25
I61
g3
tp8264
(Ntp8265
s(g1
g6
I6
g13
tp8266
(Ntp8267
s(g12
g6
I145
g3
tp8268
(Ntp8269
s(g12
g6
I22
g3
tp8270
(Ntp8271
s(g9
g25
I92
g3
tp8272
(Ntp8273
s(g12
g6
I182
g13
tp8274
(Ntp8275
s(g24
g6
I182
g13
tp8276
(Ntp8277
s(g12
g25
I36
g3
tp8278
(Ntp8279
s(g9
g6
I82
g3
tp8280
(Ntp8281
s(g9
g6
I143
g13
tp8282
(Ntp8283
s(g9
g6
I20
g13
tp8284
(Ntp8285
s(g12
g25
I101
g13
tp8286
(Ntp8287
s(g1
g6
I47
g13
tp8288
(Ntp8289
s(g1
g6
I180
g13
tp8290
(Ntp8291
s(g21
g6
I116
g3
tp8292
(Ntp8293
s(g24
g25
I49
g3
tp8294
(Ntp8295
s(g1
g2
I79
g3
tp8296
(Ntp8297
s(g12
g6
I175
g13
tp8298
(Ntp8299
s(g21
g6
I204
g3
tp8300
(Ntp8301
s(g18
g25
I26
g3
tp8302
(Ntp8303
s(g24
g2
I4
g3
tp8304
(Ntp8305
s(g9
g25
I25
g3
tp8306
(Ntp8307
s(g9
g6
I21
g13
tp8308
(Ntp8309
s(g9
g25
I114
g3
tp8310
(Ntp8311
s(g24
g6
I215
g13
tp8312
(Ntp8313
s(g24
g2
I60
g13
tp8314
(Ntp8315
s(g12
g6
I152
g13
tp8316
(Ntp8317
s(g24
g6
I160
g13
tp8318
(Ntp8319
s(g18
g6
I170
g13
tp8320
(Ntp8321
s(g18
g2
I97
g13
tp8322
(Ntp8323
s(g21
g2
I100
g13
tp8324
(Ntp8325
s(g9
g2
I40
g3
tp8326
(Ntp8327
s(g21
g25
I96
g3
tp8328
(Ntp8329
s(g9
g6
I42
g13
tp8330
(Ntp8331
s(g12
g25
I83
g13
tp8332
(Ntp8333
s(g18
g25
I10
g3
tp8334
(Ntp8335
s(g9
g25
I101
g3
tp8336
(Ntp8337
s(g21
g2
I110
g13
tp8338
(Ntp8339
s(g18
g6
I135
g13
tp8340
(Ntp8341
s(g18
g2
I94
g13
tp8342
(Ntp8343
s(g21
g2
I17
g13
tp8344
(Ntp8345
s(g12
g6
I10
g13
tp8346
(Ntp8347
s(g18
g25
I115
g3
tp8348
(Ntp8349
s(g21
g25
I80
g3
tp8350
(Ntp8351
s(g12
g25
I29
g13
tp8352
(Ntp8353
s(g12
g25
I75
g3
tp8354
(Ntp8355
s(g21
g25
I52
g13
tp8356
(Ntp8357
s(g9
g6
I157
g3
tp8358
(Ntp8359
s(g9
g25
I34
g13
tp8360
(Ntp8361
s(g24
g25
I29
g3
tp8362
(Ntp8363
s(g18
g25
I42
g13
tp8364
(Ntp8365
s(g18
g2
I112
g3
tp8366
(Ntp8367
s(g21
g6
I211
g3
tp8368
(Ntp8369
s(g12
g6
I164
g3
tp8370
(Ntp8371
s(g21
g6
I49
g13
tp8372
(Ntp8373
s(g9
g25
I15
g3
tp8374
(Ntp8375
s(g1
g2
I81
g3
tp8376
(Ntp8377
s(g12
g25
I54
g13
tp8378
(Ntp8379
s(g18
g2
I28
g3
tp8380
(Ntp8381
s(g1
g6
I37
g3
tp8382
(Ntp8383
s(g9
g25
I11
g13
tp8384
(Ntp8385
s(g18
g2
I57
g13
tp8386
(Ntp8387
s(g9
g2
I86
g3
tp8388
(Ntp8389
s(g24
g2
I10
g3
tp8390
(Ntp8391
s(g21
g6
I168
g13
tp8392
(Ntp8393
s(g12
g2
I17
g13
tp8394
(Ntp8395
s(g1
g6
I218
g13
tp8396
(Ntp8397
s(g18
g2
I107
g3
tp8398
(Ntp8399
s(g12
g2
I28
g3
tp8400
(Ntp8401
s(g9
g25
I92
g13
tp8402
(Ntp8403
s(g9
g2
I65
g3
tp8404
(Ntp8405
s(g1
g6
I2
g13
tp8406
(Ntp8407
s(g21
g6
I197
g13
tp8408
(Ntp8409
s(g24
g6
I178
g13
tp8410
(Ntp8411
s(g9
g6
I147
g13
tp8412
(Ntp8413
s(g9
g6
I24
g13
tp8414
(Ntp8415
s(g18
g2
I15
g13
tp8416
(Ntp8417
s(g1
g6
I43
g13
tp8418
(Ntp8419
s(g1
g6
I176
g13
tp8420
(Ntp8421
s(g18
g6
I77
g3
tp8422
(Ntp8423
s(g12
g2
I7
g13
tp8424
(Ntp8425
s(g21
g2
I3
g13
tp8426
(Ntp8427
s(g24
g6
I217
g13
tp8428
(Ntp8429
s(g21
g25
I70
g3
tp8430
(Ntp8431
s(g24
g6
I211
g13
tp8432
(Ntp8433
s(g12
g6
I156
g13
tp8434
(Ntp8435
s(g24
g6
I172
g13
tp8436
(Ntp8437
s(g21
g2
I120
g13
tp8438
(Ntp8439
s(g18
g6
I207
g3
tp8440
(Ntp8441
s(g21
g2
I61
g3
tp8442
(Ntp8443
s(g9
g6
I46
g13
tp8444
(Ntp8445
s(g24
g6
I25
g3
tp8446
(Ntp8447
s(g1
g6
I142
g13
tp8448
(Ntp8449
s(g21
g2
I21
g13
tp8450
(Ntp8451
s(g12
g6
I14
g13
tp8452
(Ntp8453
s(g12
g25
I51
g3
tp8454
(Ntp8455
s(g9
g6
I219
g13
tp8456
(Ntp8457
s(g12
g25
I25
g13
tp8458
(Ntp8459
s(g9
g6
I30
g3
tp8460
(Ntp8461
s(g24
g6
I79
g3
tp8462
(Ntp8463
s(g9
g6
I199
g13
tp8464
(Ntp8465
s(g9
g25
I46
g13
tp8466
(Ntp8467
s(g12
g2
I63
g13
tp8468
(Ntp8469
s(g12
g25
I8
g13
tp8470
(Ntp8471
s(g21
g6
I217
g3
tp8472
(Ntp8473
s(g18
g25
I30
g3
tp8474
(Ntp8475
s(g24
g25
I38
g3
tp8476
(Ntp8477
s(g1
g6
I57
g3
tp8478
(Ntp8479
s(g1
g2
I103
g3
tp8480
(Ntp8481
s(g24
g6
I42
g13
tp8482
(Ntp8483
s(g12
g25
I50
g13
tp8484
(Ntp8485
s(g9
g6
I37
g3
tp8486
(Ntp8487
s(g9
g25
I55
g13
tp8488
(Ntp8489
s(g18
g2
I61
g13
tp8490
(Ntp8491
s(g21
g2
I5
g13
tp8492
(Ntp8493
s(g9
g6
I1
g3
tp8494
(Ntp8495
s(g21
g6
I224
g13
tp8496
(Ntp8497
s(g24
g6
I100
g3
tp8498
(Ntp8499
s(g21
g2
I101
g13
tp8500
(Ntp8501
s(g18
g25
I57
g3
tp8502
(Ntp8503
s(g9
g6
I116
g13
tp8504
(Ntp8505
s(g9
g25
I88
g13
tp8506
(Ntp8507
s(g24
g2
I127
g3
tp8508
(Ntp8509
s(g12
g6
I205
g13
tp8510
(Ntp8511
s(g12
g25
I37
g3
tp8512
(Ntp8513
s(g9
g6
I83
g3
tp8514
(Ntp8515
s(g1
g25
I69
g3
tp8516
(Ntp8517
s(g21
g25
I67
g3
tp8518
(Ntp8519
s(g24
g6
I190
g13
tp8520
(Ntp8521
s(g18
g25
I85
g3
tp8522
(Ntp8523
s(g21
g6
I144
g3
tp8524
(Ntp8525
s(g24
g25
I48
g3
tp8526
(Ntp8527
s(g9
g25
I33
g13
tp8528
(Ntp8529
s(g9
g6
I28
g13
tp8530
(Ntp8531
s(g18
g2
I3
g13
tp8532
(Ntp8533
s(g24
g6
I224
g3
tp8534
(Ntp8535
s(g1
g6
I55
g13
tp8536
(Ntp8537
s(g1
g6
I188
g13
tp8538
(Ntp8539
s(g21
g25
I63
g3
tp8540
(Ntp8541
s(g24
g2
I37
g3
tp8542
(Ntp8543
s(g9
g2
I130
g13
tp8544
(Ntp8545
s(g9
g6
I201
g13
tp8546
(Ntp8547
s(g21
g25
I102
g13
tp8548
(Ntp8549
s(g1
g6
I165
g13
tp8550
(Ntp8551
s(g18
g2
I106
g3
tp8552
(Ntp8553
s(g24
g6
I168
g13
tp8554
(Ntp8555
s(g24
g2
I42
g3
tp8556
(Ntp8557
s(g24
g6
I116
g3
tp8558
(Ntp8559
s(g21
g2
I124
g13
tp8560
(Ntp8561
s(g9
g6
I50
g13
tp8562
(Ntp8563
s(g1
g6
I138
g13
tp8564
(Ntp8565
s(g12
g25
I15
g13
tp8566
(Ntp8567
s(g21
g2
I111
g13
tp8568
(Ntp8569
s(g21
g2
I41
g13
tp8570
(Ntp8571
s(g12
g6
I2
g13
tp8572
(Ntp8573
s(g9
g6
I223
g13
tp8574
(Ntp8575
s(g21
g25
I112
g13
tp8576
(Ntp8577
s(g1
g6
I179
g13
tp8578
(Ntp8579
s(g1
g6
I186
g3
tp8580
(Ntp8581
s(g12
g2
I51
g13
tp8582
(Ntp8583
s(g21
g2
I89
g3
tp8584
(Ntp8585
s(g9
g6
I77
g13
tp8586
(Ntp8587
s(g12
g25
I46
g13
tp8588
(Ntp8589
s(g18
g2
I100
g3
tp8590
(Ntp8591
s(g24
g2
I60
g3
tp8592
(Ntp8593
s(g18
g2
I49
g13
tp8594
(Ntp8595
s(g12
g6
I20
g13
tp8596
(Ntp8597
s(g24
g6
I29
g3
tp8598
(Ntp8599
s(g21
g2
I71
g3
tp8600
(Ntp8601
s(g21
g25
I83
g13
tp8602
(Ntp8603
s(g9
g2
I32
g3
tp8604
(Ntp8605
s(g1
g6
I112
g3
tp8606
(Ntp8607
s(g9
g25
I68
g13
tp8608
(Ntp8609
s(g24
g2
I74
g3
tp8610
(Ntp8611
s(g12
g6
I193
g13
tp8612
(Ntp8613
s(g12
g6
I90
g13
tp8614
(Ntp8615
s(g18
g2
I42
g13
tp8616
(Ntp8617
s(g9
g2
I28
g3
tp8618
(Ntp8619
s(g12
g2
I42
g3
tp8620
(Ntp8621
s(g12
g6
I158
g3
tp8622
(Ntp8623
s(g12
g6
I8
g3
tp8624
(Ntp8625
s(g1
g6
I22
g13
tp8626
(Ntp8627
s(g24
g6
I58
g3
tp8628
(Ntp8629
s(g24
g6
I103
g3
tp8630
(Ntp8631
s(g9
g2
I7
g3
tp8632
(Ntp8633
s(g1
g6
I184
g13
tp8634
(Ntp8635
s(g1
g25
I68
g3
tp8636
(Ntp8637
s(g24
g6
I193
g13
tp8638
(Ntp8639
s(g12
g6
I172
g3
tp8640
(Ntp8641
s(g24
g6
I104
g3
tp8642
(Ntp8643
s(g12
g2
I81
g3
tp8644
(Ntp8645
s(g1
g2
I38
g13
tp8646
(Ntp8647
s(g12
g2
I20
g3
tp8648
(Ntp8649
s(g21
g25
I98
g13
tp8650
(Ntp8651
s(g21
g6
I227
g13
tp8652
(Ntp8653
s(g21
g6
I152
g13
tp8654
(Ntp8655
s(g9
g25
I30
g3
tp8656
(Ntp8657
s(g24
g6
I148
g13
tp8658
(Ntp8659
s(g24
g6
I31
g13
tp8660
(Ntp8661
s(g24
g25
I17
g13
tp8662
(Ntp8663
s(g9
g2
I111
g13
tp8664
(Ntp8665
s(g9
g25
I35
g13
tp8666
(Ntp8667
s(g9
g6
I54
g13
tp8668
(Ntp8669
s(g1
g6
I150
g13
tp8670
(Ntp8671
s(g24
g25
I124
g13
tp8672
(Ntp8673
s(g12
g6
I6
g13
tp8674
(Ntp8675
s(g18
g6
I39
g3
tp8676
(Ntp8677
s(g9
g6
I227
g13
tp8678
(Ntp8679
s(g21
g6
I120
g3
tp8680
(Ntp8681
s(g1
g2
I91
g3
tp8682
(Ntp8683
s(g1
g25
I42
g13
tp8684
(Ntp8685
s(g21
g25
I12
g13
tp8686
(Ntp8687
s(g9
g2
I49
g13
tp8688
(Ntp8689
s(g12
g2
I55
g13
tp8690
(Ntp8691
s(g24
g6
I9
g13
tp8692
(Ntp8693
s(g9
g6
I158
g3
tp8694
(Ntp8695
s(g18
g6
I212
g13
tp8696
(Ntp8697
s(g21
g6
I119
g3
tp8698
(Ntp8699
s(g12
g25
I18
g3
tp8700
(Ntp8701
s(g9
g6
I81
g13
tp8702
(Ntp8703
s(g12
g25
I42
g13
tp8704
(Ntp8705
s(g21
g2
I72
g13
tp8706
(Ntp8707
s(g24
g6
I16
g13
tp8708
(Ntp8709
s(g9
g25
I113
g3
tp8710
(Ntp8711
s(g1
g6
I123
g13
tp8712
(Ntp8713
s(g21
g25
I88
g13
tp8714
(Ntp8715
s(g12
g25
I9
g3
tp8716
(Ntp8717
s(g12
g25
I34
g3
tp8718
(Ntp8719
s(g21
g25
I111
g13
tp8720
(Ntp8721
s(g1
g25
I134
g3
tp8722
(Ntp8723
s(g1
g25
I28
g13
tp8724
(Ntp8725
s(g9
g6
I111
g3
tp8726
(Ntp8727
s(g9
g6
I80
g3
tp8728
(Ntp8729
s(g9
g6
I196
g3
tp8730
(Ntp8731
s(g12
g6
I94
g13
tp8732
(Ntp8733
s(g21
g6
I13
g3
tp8734
(Ntp8735
s(g12
g2
I70
g3
tp8736
(Ntp8737
s(g18
g2
I46
g13
tp8738
(Ntp8739
s(g18
g25
I116
g3
tp8740
(Ntp8741
s(g24
g25
I12
g3
tp8742
(Ntp8743
s(g21
g2
I1
g3
tp8744
(Ntp8745
s(g9
g6
I103
g13
tp8746
(Ntp8747
s(g1
g25
I32
g3
tp8748
(Ntp8749
s(g9
g6
I211
g3
tp8750
(Ntp8751
s(g18
g25
I24
g3
tp8752
(Ntp8753
s(g9
g25
I27
g3
tp8754
(Ntp8755
s(g12
g6
I119
g13
tp8756
(Ntp8757
s(g21
g6
I97
g3
tp8758
(Ntp8759
s(g1
g2
I40
g13
tp8760
(Ntp8761
s(g1
g25
I63
g13
tp8762
(Ntp8763
s(g18
g6
I74
g3
tp8764
(Ntp8765
s(g18
g25
I111
g3
tp8766
(Ntp8767
s(g12
g6
I32
g13
tp8768
(Ntp8769
s(g9
g25
I103
g3
tp8770
(Ntp8771
s(g21
g25
I17
g3
tp8772
(Ntp8773
s(g21
g6
I156
g13
tp8774
(Ntp8775
s(g24
g6
I27
g13
tp8776
(Ntp8777
s(g9
g6
I121
g3
tp8778
(Ntp8779
s(g9
g2
I85
g3
tp8780
(Ntp8781
s(g24
g25
I21
g13
tp8782
(Ntp8783
s(g21
g25
I117
g3
tp8784
(Ntp8785
s(g9
g2
I24
g3
tp8786
(Ntp8787
s(g21
g6
I174
g3
tp8788
(Ntp8789
s(g1
g2
I75
g13
tp8790
(Ntp8791
s(g1
g6
I146
g13
tp8792
(Ntp8793
s(g24
g25
I64
g13
tp8794
(Ntp8795
s(g24
g6
I34
g13
tp8796
(Ntp8797
s(g1
g6
I158
g3
tp8798
(Ntp8799
s(g21
g25
I75
g3
tp8800
(Ntp8801
s(g24
g2
I11
g3
tp8802
(Ntp8803
s(g12
g25
I118
g3
tp8804
(Ntp8805
s(g18
g6
I133
g3
tp8806
(Ntp8807
s(g1
g25
I46
g13
tp8808
(Ntp8809
s(g21
g25
I8
g13
tp8810
(Ntp8811
s(g21
g6
I130
g13
tp8812
(Ntp8813
s(g12
g2
I43
g13
tp8814
(Ntp8815
s(g24
g25
I107
g13
tp8816
(Ntp8817
s(g18
g6
I38
g3
tp8818
(Ntp8819
s(g18
g6
I200
g13
tp8820
(Ntp8821
s(g21
g2
I84
g3
tp8822
(Ntp8823
s(g24
g6
I94
g3
tp8824
(Ntp8825
s(g9
g6
I85
g13
tp8826
(Ntp8827
s(g1
g2
I29
g3
tp8828
(Ntp8829
s(g21
g25
I97
g13
tp8830
(Ntp8831
s(g9
g2
I67
g3
tp8832
(Ntp8833
s(g24
g25
I86
g13
tp8834
(Ntp8835
s(g21
g2
I76
g13
tp8836
(Ntp8837
s(g24
g6
I28
g13
tp8838
(Ntp8839
s(g18
g6
I165
g13
tp8840
(Ntp8841
s(g9
g6
I2
g13
tp8842
(Ntp8843
s(g21
g2
I111
g3
tp8844
(Ntp8845
s(g12
g6
I82
g13
tp8846
(Ntp8847
s(g18
g25
I124
g3
tp8848
(Ntp8849
s(g9
g6
I107
g13
tp8850
(Ntp8851
s(g9
g6
I76
g3
tp8852
(Ntp8853
s(g1
g25
I41
g13
tp8854
(Ntp8855
s(g21
g6
I199
g3
tp8856
(Ntp8857
s(g12
g6
I75
g13
tp8858
(Ntp8859
s(g24
g6
I76
g13
tp8860
(Ntp8861
s(g12
g6
I136
g3
tp8862
(Ntp8863
s(g24
g6
I216
g3
tp8864
(Ntp8865
s(g1
g2
I20
g13
tp8866
(Ntp8867
s(g1
g25
I35
g13
tp8868
(Ntp8869
s(g21
g25
I25
g3
tp8870
(Ntp8871
s(g12
g6
I36
g13
tp8872
(Ntp8873
s(g18
g6
I168
g3
tp8874
(Ntp8875
s(g21
g6
I144
g13
tp8876
(Ntp8877
s(g12
g25
I49
g3
tp8878
(Ntp8879
s(g24
g25
I25
g13
tp8880
(Ntp8881
s(g9
g6
I71
g3
tp8882
(Ntp8883
s(g12
g6
I150
g3
tp8884
(Ntp8885
s(g24
g6
I34
g3
tp8886
(Ntp8887
s(g24
g6
I73
g3
tp8888
(Ntp8889
s(g1
g2
I55
g13
tp8890
(Ntp8891
s(g24
g25
I68
g13
tp8892
(Ntp8893
s(g9
g2
I111
g3
tp8894
(Ntp8895
s(g24
g6
I46
g13
tp8896
(Ntp8897
s(g1
g25
I46
g3
tp8898
(Ntp8899
s(g18
g6
I2
g3
tp8900
(Ntp8901
s(g24
g6
I50
g3
tp8902
(Ntp8903
s(g24
g6
I206
g3
tp8904
(Ntp8905
s(g21
g6
I134
g13
tp8906
(Ntp8907
s(g18
g25
I110
g3
tp8908
(Ntp8909
s(g9
g25
I32
g3
tp8910
(Ntp8911
s(g24
g25
I111
g13
tp8912
(Ntp8913
s(g1
g2
I87
g3
tp8914
(Ntp8915
s(g18
g6
I204
g13
tp8916
(Ntp8917
s(g9
g2
I50
g13
tp8918
(Ntp8919
s(g9
g6
I89
g13
tp8920
(Ntp8921
s(g21
g25
I116
g3
tp8922
(Ntp8923
s(g24
g25
I90
g13
tp8924
(Ntp8925
s(g21
g6
I170
g3
tp8926
(Ntp8927
s(g24
g6
I24
g13
tp8928
(Ntp8929
s(g9
g6
I81
g3
tp8930
(Ntp8931
s(g9
g2
I95
g13
tp8932
(Ntp8933
s(g9
g6
I6
g13
tp8934
(Ntp8935
s(g21
g6
I150
g3
tp8936
(Ntp8937
s(g1
g25
I4
g13
tp8938
(Ntp8939
s(g21
g25
I100
g3
tp8940
(Ntp8941
s(g24
g2
I115
g13
tp8942
(Ntp8943
s(g12
g6
I86
g13
tp8944
(Ntp8945
s(g1
g25
I144
g3
tp8946
(Ntp8947
s(g24
g25
I105
g3
tp8948
(Ntp8949
s(g9
g6
I111
g13
tp8950
(Ntp8951
s(g21
g6
I141
g3
tp8952
(Ntp8953
s(g12
g25
I104
g3
tp8954
(Ntp8955
s(g21
g6
I64
g3
tp8956
(Ntp8957
s(g1
g25
I45
g13
tp8958
(Ntp8959
s(g18
g25
I96
g3
tp8960
(Ntp8961
s(g24
g6
I208
g3
tp8962
(Ntp8963
s(g24
g6
I125
g13
tp8964
(Ntp8965
s(g9
g25
I21
g13
tp8966
(Ntp8967
s(g18
g2
I104
g3
tp8968
(Ntp8969
s(g1
g2
I16
g13
tp8970
(Ntp8971
s(g24
g2
I40
g3
tp8972
(Ntp8973
s(g9
g2
I114
g13
tp8974
(Ntp8975
s(g12
g25
I95
g3
tp8976
(Ntp8977
s(g21
g25
I10
g3
tp8978
(Ntp8979
s(g12
g6
I56
g13
tp8980
(Ntp8981
s(g24
g6
I64
g13
tp8982
(Ntp8983
s(g18
g6
I74
g13
tp8984
(Ntp8985
s(g18
g2
I103
g3
tp8986
(Ntp8987
s(g18
g6
I29
g13
tp8988
(Ntp8989
s(g21
g6
I148
g13
tp8990
(Ntp8991
s(g21
g6
I91
g3
tp8992
(Ntp8993
s(g24
g25
I122
g3
tp8994
(Ntp8995
s(g21
g6
I219
g13
tp8996
(Ntp8997
s(g9
g25
I73
g3
tp8998
(Ntp8999
s(g21
g25
I29
g3
tp9000
(Ntp9001
s(g1
g25
I10
g3
tp9002
(Ntp9003
s(g9
g6
I199
g3
tp9004
(Ntp9005
s(g12
g6
I81
g13
tp9006
(Ntp9007
s(g9
g25
I45
g3
tp9008
(Ntp9009
s(g24
g25
I72
g13
tp9010
(Ntp9011
s(g1
g6
I3
g13
tp9012
(Ntp9013
s(g1
g25
I85
g13
tp9014
(Ntp9015
s(g9
g25
I68
g3
tp9016
(Ntp9017
s(g21
g2
I112
g3
tp9018
(Ntp9019
s(g21
g6
I186
g13
tp9020
(Ntp9021
s(g9
g25
I19
g3
tp9022
(Ntp9023
s(g9
g2
I54
g13
tp9024
(Ntp9025
s(g9
g2
I34
g3
tp9026
(Ntp9027
s(g9
g2
I73
g13
tp9028
(Ntp9029
s(g18
g6
I166
g3
tp9030
(Ntp9031
s(g21
g6
I178
g3
tp9032
(Ntp9033
s(g1
g2
I97
g13
tp9034
(Ntp9035
s(g21
g6
I8
g13
tp9036
(Ntp9037
s(g24
g25
I94
g13
tp9038
(Ntp9039
s(g24
g25
I37
g13
tp9040
(Ntp9041
s(g24
g6
I4
g13
tp9042
(Ntp9043
s(g24
g6
I13
g3
tp9044
(Ntp9045
s(g12
g2
I23
g3
tp9046
(Ntp9047
s(g9
g2
I67
g13
tp9048
(Ntp9049
s(g18
g6
I126
g3
tp9050
(Ntp9051
s(g12
g6
I55
g3
tp9052
(Ntp9053
s(g9
g2
I45
g3
tp9054
(Ntp9055
s(g21
g6
I37
g13
tp9056
(Ntp9057
s(g24
g6
I82
g13
tp9058
(Ntp9059
s(g9
g6
I104
g3
tp9060
(Ntp9061
s(g9
g2
I9
g3
tp9062
(Ntp9063
s(g1
g25
I67
g3
tp9064
(Ntp9065
s(g18
g25
I80
g13
tp9066
(Ntp9067
s(g12
g2
I26
g3
tp9068
(Ntp9069
s(g18
g6
I47
g13
tp9070
(Ntp9071
s(g9
g2
I40
g13
tp9072
(Ntp9073
s(g21
g6
I14
g3
tp9074
(Ntp9075
s(g9
g6
I115
g13
tp9076
(Ntp9077
s(g12
g6
I137
g3
tp9078
(Ntp9079
s(g21
g2
I14
g3
tp9080
(Ntp9081
s(g1
g6
I150
g3
tp9082
(Ntp9083
s(g1
g25
I17
g13
tp9084
(Ntp9085
s(g24
g6
I87
g3
tp9086
(Ntp9087
s(g24
g25
I59
g13
tp9088
(Ntp9089
s(g24
g6
I121
g13
tp9090
(Ntp9091
s(g9
g25
I24
g3
tp9092
(Ntp9093
s(g9
g2
I75
g3
tp9094
(Ntp9095
s(g18
g25
I1
g13
tp9096
(Ntp9097
s(g21
g6
I203
g3
tp9098
(Ntp9099
s(g1
g25
I103
g13
tp9100
(Ntp9101
s(g12
g2
I1
g3
tp9102
(Ntp9103
s(g24
g2
I101
g13
tp9104
(Ntp9105
s(g18
g6
I17
g13
tp9106
(Ntp9107
s(g24
g2
I110
g3
tp9108
(Ntp9109
s(g1
g2
I44
g3
tp9110
(Ntp9111
s(g24
g2
I72
g13
tp9112
(Ntp9113
s(g1
g2
I115
g13
tp9114
(Ntp9115
s(g24
g6
I162
g3
tp9116
(Ntp9117
s(g1
g25
I89
g13
tp9118
(Ntp9119
s(g21
g25
I72
g3
tp9120
(Ntp9121
s(g12
g25
I99
g3
tp9122
(Ntp9123
s(g1
g2
I118
g3
tp9124
(Ntp9125
s(g1
g25
I109
g3
tp9126
(Ntp9127
s(g18
g6
I130
g3
tp9128
(Ntp9129
s(g12
g25
I7
g3
tp9130
(Ntp9131
s(g9
g2
I58
g13
tp9132
(Ntp9133
s(g9
g2
I77
g13
tp9134
(Ntp9135
s(g1
g2
I121
g3
tp9136
(Ntp9137
s(g1
g2
I18
g3
tp9138
(Ntp9139
s(g1
g2
I109
g13
tp9140
(Ntp9141
s(g12
g2
I31
g3
tp9142
(Ntp9143
s(g24
g25
I41
g13
tp9144
(Ntp9145
s(g1
g25
I29
g3
tp9146
(Ntp9147
s(g12
g25
I57
g3
tp9148
(Ntp9149
s(g9
g6
I209
g3
tp9150
(Ntp9151
s(g1
g6
I105
g13
tp9152
(Ntp9153
s(g9
g6
I96
g3
tp9154
(Ntp9155
s(g21
g6
I89
g13
tp9156
(Ntp9157
s(g24
g6
I94
g13
tp9158
(Ntp9159
s(g18
g25
I68
g3
tp9160
(Ntp9161
s(g18
g6
I35
g13
tp9162
(Ntp9163
s(g12
g6
I54
g3
tp9164
(Ntp9165
s(g9
g6
I109
g3
tp9166
(Ntp9167
s(g9
g25
I60
g3
tp9168
(Ntp9169
s(g24
g25
I63
g13
tp9170
(Ntp9171
s(g21
g25
I46
g3
tp9172
(Ntp9173
s(g21
g6
I192
g3
tp9174
(Ntp9175
s(g1
g2
I111
g3
tp9176
(Ntp9177
s(g1
g25
I107
g13
tp9178
(Ntp9179
s(g21
g25
I77
g13
tp9180
(Ntp9181
s(g24
g6
I157
g3
tp9182
(Ntp9183
s(g21
g6
I79
g13
tp9184
(Ntp9185
s(g21
g6
I172
g3
tp9186
(Ntp9187
s(g24
g6
I72
g13
tp9188
(Ntp9189
s(g24
g2
I97
g13
tp9190
(Ntp9191
s(g21
g25
I33
g3
tp9192
(Ntp9193
s(g24
g25
I38
g13
tp9194
(Ntp9195
s(g1
g25
I11
g3
tp9196
(Ntp9197
s(g18
g6
I21
g13
tp9198
(Ntp9199
s(g21
g6
I81
g3
tp9200
(Ntp9201
s(g24
g25
I87
g3
tp9202
(Ntp9203
s(g9
g2
I8
g3
tp9204
(Ntp9205
s(g1
g25
I112
g13
tp9206
(Ntp9207
s(g24
g2
I84
g13
tp9208
(Ntp9209
s(g21
g6
I158
g3
tp9210
(Ntp9211
s(g9
g25
I69
g3
tp9212
(Ntp9213
s(g24
g6
I33
g3
tp9214
(Ntp9215
s(g1
g2
I127
g13
tp9216
(Ntp9217
s(g18
g2
I70
g3
tp9218
(Ntp9219
s(g18
g25
I114
g3
tp9220
(Ntp9221
s(g9
g6
I13
g3
tp9222
(Ntp9223
s(g1
g25
I93
g13
tp9224
(Ntp9225
s(g1
g6
I174
g3
tp9226
(Ntp9227
s(g21
g25
I91
g3
tp9228
(Ntp9229
s(g12
g25
I107
g3
tp9230
(Ntp9231
s(g24
g2
I127
g13
tp9232
(Ntp9233
s(g18
g25
I29
g13
tp9234
(Ntp9235
s(g18
g6
I112
g13
tp9236
(Ntp9237
s(g18
g2
I93
g3
tp9238
(Ntp9239
s(g21
g6
I126
g13
tp9240
(Ntp9241
s(g18
g2
I16
g3
tp9242
(Ntp9243
s(g21
g2
I97
g3
tp9244
(Ntp9245
s(g24
g2
I32
g3
tp9246
(Ntp9247
s(g21
g25
I55
g3
tp9248
(Ntp9249
s(g9
g2
I113
g13
tp9250
(Ntp9251
s(g1
g2
I105
g13
tp9252
(Ntp9253
s(g1
g6
I197
g3
tp9254
(Ntp9255
s(g24
g25
I45
g13
tp9256
(Ntp9257
s(g9
g2
I54
g3
tp9258
(Ntp9259
s(g18
g25
I60
g13
tp9260
(Ntp9261
s(g12
g6
I18
g3
tp9262
(Ntp9263
s(g18
g25
I107
g13
tp9264
(Ntp9265
s(g1
g6
I117
g13
tp9266
(Ntp9267
s(g21
g6
I93
g13
tp9268
(Ntp9269
s(g21
g2
I42
g3
tp9270
(Ntp9271
s(g1
g6
I151
g3
tp9272
(Ntp9273
s(g24
g6
I218
g3
tp9274
(Ntp9275
s(g1
g6
I90
g13
tp9276
(Ntp9277
s(g12
g6
I149
g3
tp9278
(Ntp9279
s(g9
g2
I76
g3
tp9280
(Ntp9281
s(g1
g6
I30
g13
tp9282
(Ntp9283
s(g24
g25
I3
g13
tp9284
(Ntp9285
s(g24
g6
I97
g13
tp9286
(Ntp9287
s(g21
g2
I120
g3
tp9288
(Ntp9289
s(g24
g6
I215
g3
tp9290
(Ntp9291
s(g9
g6
I240
g13
tp9292
(Ntp9293
s(g18
g6
I109
g3
tp9294
(Ntp9295
s(g1
g6
I67
g13
tp9296
(Ntp9297
s(g24
g2
I66
g3
tp9298
(Ntp9299
s(g24
g6
I44
g3
tp9300
(Ntp9301
s(g24
g6
I52
g13
tp9302
(Ntp9303
s(g24
g2
I109
g13
tp9304
(Ntp9305
s(g18
g6
I9
g13
tp9306
(Ntp9307
s(g24
g6
I5
g3
tp9308
(Ntp9309
s(g21
g6
I36
g3
tp9310
(Ntp9311
s(g1
g25
I116
g13
tp9312
(Ntp9313
s(g21
g2
I29
g3
tp9314
(Ntp9315
s(g24
g6
I57
g3
tp9316
(Ntp9317
s(g12
g2
I59
g3
tp9318
(Ntp9319
s(g12
g6
I105
g13
tp9320
(Ntp9321
s(g9
g25
I34
g3
tp9322
(Ntp9323
s(g12
g25
I108
g13
tp9324
(Ntp9325
s(g1
g25
I65
g13
tp9326
(Ntp9327
s(g18
g6
I131
g3
tp9328
(Ntp9329
s(g18
g6
I145
g13
tp9330
(Ntp9331
s(g18
g25
I25
g13
tp9332
(Ntp9333
s(g24
g6
I111
g3
tp9334
(Ntp9335
s(g18
g6
I116
g13
tp9336
(Ntp9337
s(g1
g6
I217
g3
tp9338
(Ntp9339
s(g9
g25
I16
g3
tp9340
(Ntp9341
s(g24
g2
I53
g13
tp9342
(Ntp9343
s(g9
g6
I5
g3
tp9344
(Ntp9345
s(g1
g6
I72
g13
tp9346
(Ntp9347
s(g18
g2
I104
g13
tp9348
(Ntp9349
s(g1
g2
I85
g13
tp9350
(Ntp9351
s(g1
g6
I12
g13
tp9352
(Ntp9353
s(g1
g25
I146
g3
tp9354
(Ntp9355
s(g21
g6
I218
g3
tp9356
(Ntp9357
s(g9
g6
I97
g3
tp9358
(Ntp9359
s(g12
g2
I82
g3
tp9360
(Ntp9361
s(g18
g25
I103
g13
tp9362
(Ntp9363
s(g1
g6
I113
g13
tp9364
(Ntp9365
s(g21
g6
I81
g13
tp9366
(Ntp9367
s(g24
g2
I31
g3
tp9368
(Ntp9369
s(g1
g2
I88
g3
tp9370
(Ntp9371
s(g12
g25
I2
g3
tp9372
(Ntp9373
s(g1
g25
I101
g3
tp9374
(Ntp9375
s(g12
g25
I93
g3
tp9376
(Ntp9377
s(g9
g2
I16
g13
tp9378
(Ntp9379
s(g21
g6
I193
g3
tp9380
(Ntp9381
s(g21
g6
I112
g3
tp9382
(Ntp9383
s(g9
g6
I27
g3
tp9384
(Ntp9385
s(g12
g6
I182
g3
tp9386
(Ntp9387
s(g1
g2
I67
g3
tp9388
(Ntp9389
s(g24
g25
I7
g13
tp9390
(Ntp9391
s(g12
g6
I110
g3
tp9392
(Ntp9393
s(g9
g6
I161
g3
tp9394
(Ntp9395
s(g21
g25
I31
g3
tp9396
(Ntp9397
s(g9
g25
I118
g3
tp9398
(Ntp9399
s(g12
g25
I15
g3
tp9400
(Ntp9401
s(g1
g6
I79
g13
tp9402
(Ntp9403
s(g1
g6
I212
g13
tp9404
(Ntp9405
s(g21
g6
I212
g3
tp9406
(Ntp9407
s(g24
g6
I101
g13
tp9408
(Ntp9409
s(g9
g25
I121
g3
tp9410
(Ntp9411
s(g9
g25
I70
g3
tp9412
(Ntp9413
s(g24
g2
I97
g3
tp9414
(Ntp9415
s(g1
g25
I139
g3
tp9416
(Ntp9417
s(g24
g2
I92
g13
tp9418
(Ntp9419
s(g9
g6
I138
g13
tp9420
(Ntp9421
s(g12
g25
I104
g13
tp9422
(Ntp9423
s(g12
g6
I170
g13
tp9424
(Ntp9425
s(g21
g6
I223
g3
tp9426
(Ntp9427
s(g18
g25
I21
g13
tp9428
(Ntp9429
s(g21
g2
I64
g3
tp9430
(Ntp9431
s(g18
g6
I104
g13
tp9432
(Ntp9433
s(g9
g25
I3
g3
tp9434
(Ntp9435
s(g1
g25
I130
g13
tp9436
(Ntp9437
s(g21
g25
I22
g3
tp9438
(Ntp9439
s(g9
g2
I53
g13
tp9440
(Ntp9441
s(g12
g25
I1
g13
tp9442
(Ntp9443
s(g24
g2
I49
g13
tp9444
(Ntp9445
s(g12
g6
I135
g13
tp9446
(Ntp9447
s(g9
g2
I82
g3
tp9448
(Ntp9449
s(g18
g25
I74
g13
tp9450
(Ntp9451
s(g18
g2
I108
g13
tp9452
(Ntp9453
s(g9
g6
I110
g3
tp9454
(Ntp9455
s(g9
g25
I111
g3
tp9456
(Ntp9457
s(g12
g25
I86
g13
tp9458
(Ntp9459
s(g24
g6
I11
g3
tp9460
(Ntp9461
s(g24
g6
I61
g3
tp9462
(Ntp9463
s(g12
g2
I24
g3
tp9464
(Ntp9465
s(g21
g2
I43
g3
tp9466
(Ntp9467
s(g9
g2
I93
g3
tp9468
(Ntp9469
s(g1
g6
I148
g3
tp9470
(Ntp9471
s(g18
g2
I89
g13
tp9472
(Ntp9473
s(g18
g25
I99
g13
tp9474
(Ntp9475
s(g12
g25
I58
g3
tp9476
(Ntp9477
s(g1
g6
I125
g13
tp9478
(Ntp9479
s(g18
g2
I5
g13
tp9480
(Ntp9481
s(g12
g6
I146
g3
tp9482
(Ntp9483
s(g9
g6
I171
g3
tp9484
(Ntp9485
s(g24
g2
I15
g13
tp9486
(Ntp9487
s(g12
g2
I94
g3
tp9488
(Ntp9489
s(g21
g6
I201
g3
tp9490
(Ntp9491
s(g21
g2
I121
g3
tp9492
(Ntp9493
s(g9
g2
I20
g13
tp9494
(Ntp9495
s(g18
g2
I114
g13
tp9496
(Ntp9497
s(g21
g2
I54
g13
tp9498
(Ntp9499
s(g1
g25
I100
g3
tp9500
(Ntp9501
s(g1
g6
I75
g13
tp9502
(Ntp9503
s(g12
g6
I204
g3
tp9504
(Ntp9505
s(g24
g6
I4
g3
tp9506
(Ntp9507
s(g9
g6
I165
g13
tp9508
(Ntp9509
s(g24
g6
I172
g3
tp9510
(Ntp9511
s(g12
g25
I92
g3
tp9512
(Ntp9513
s(g9
g25
I29
g13
tp9514
(Ntp9515
s(g9
g6
I142
g13
tp9516
(Ntp9517
s(g9
g6
I26
g3
tp9518
(Ntp9519
s(g1
g6
I46
g13
tp9520
(Ntp9521
s(g18
g6
I71
g3
tp9522
(Ntp9523
s(g12
g2
I2
g13
tp9524
(Ntp9525
s(g1
g2
I123
g3
tp9526
(Ntp9527
s(g21
g25
I88
g3
tp9528
(Ntp9529
s(g12
g25
I83
g3
tp9530
(Ntp9531
s(g18
g6
I108
g13
tp9532
(Ntp9533
s(g9
g6
I187
g13
tp9534
(Ntp9535
s(g12
g25
I14
g3
tp9536
(Ntp9537
s(g1
g25
I134
g13
tp9538
(Ntp9539
s(g9
g6
I10
g3
tp9540
(Ntp9541
s(g24
g2
I61
g13
tp9542
(Ntp9543
s(g21
g6
I87
g3
tp9544
(Ntp9545
s(g12
g2
I95
g13
tp9546
(Ntp9547
s(g12
g6
I155
g13
tp9548
(Ntp9549
s(g24
g25
I70
g3
tp9550
(Ntp9551
s(g21
g2
I55
g3
tp9552
(Ntp9553
s(g18
g6
I57
g13
tp9554
(Ntp9555
s(g18
g2
I96
g13
tp9556
(Ntp9557
s(g21
g2
I103
g13
tp9558
(Ntp9559
s(g12
g25
I82
g13
tp9560
(Ntp9561
s(g18
g25
I66
g3
tp9562
(Ntp9563
s(g9
g25
I81
g3
tp9564
(Ntp9565
s(g12
g25
I41
g3
tp9566
(Ntp9567
s(g24
g2
I36
g13
tp9568
(Ntp9569
s(g18
g2
I93
g13
tp9570
(Ntp9571
s(g12
g6
I176
g13
tp9572
(Ntp9573
s(g18
g25
I127
g13
tp9574
(Ntp9575
s(g9
g6
I79
g3
tp9576
(Ntp9577
s(g9
g6
I36
g3
tp9578
(Ntp9579
s(g18
g2
I52
g3
tp9580
(Ntp9581
s(g18
g25
I89
g3
tp9582
(Ntp9583
s(g24
g6
I139
g13
tp9584
(Ntp9585
s(g18
g25
I20
g3
tp9586
(Ntp9587
s(g24
g25
I44
g3
tp9588
(Ntp9589
s(g1
g6
I15
g3
tp9590
(Ntp9591
s(g9
g25
I58
g3
tp9592
(Ntp9593
s(g12
g25
I69
g3
tp9594
(Ntp9595
s(g9
g6
I51
g3
tp9596
(Ntp9597
s(g21
g25
I35
g3
tp9598
(Ntp9599
s(g24
g25
I80
g3
tp9600
(Ntp9601
s(g24
g2
I50
g13
tp9602
(Ntp9603
s(g24
g6
I128
g3
tp9604
(Ntp9605
s(g1
g6
I87
g13
tp9606
(Ntp9607
s(g18
g6
I106
g3
tp9608
(Ntp9609
s(g18
g25
I15
g3
tp9610
(Ntp9611
s(g9
g25
I71
g3
tp9612
(Ntp9613
s(g12
g2
I16
g13
tp9614
(Ntp9615
s(g21
g25
I113
g3
tp9616
(Ntp9617
s(g24
g2
I69
g3
tp9618
(Ntp9619
s(g24
g6
I35
g3
tp9620
(Ntp9621
s(g9
g6
I169
g13
tp9622
(Ntp9623
s(g9
g6
I89
g3
tp9624
(Ntp9625
s(g1
g6
I1
g13
tp9626
(Ntp9627
s(g21
g25
I85
g3
tp9628
(Ntp9629
s(g1
g6
I197
g13
tp9630
(Ntp9631
s(g21
g6
I142
g3
tp9632
(Ntp9633
s(g24
g2
I23
g3
tp9634
(Ntp9635
s(g9
g6
I146
g13
tp9636
(Ntp9637
s(g12
g25
I96
g13
tp9638
(Ntp9639
s(g12
g6
I125
g3
tp9640
(Ntp9641
s(g1
g6
I42
g13
tp9642
(Ntp9643
s(g1
g6
I190
g3
tp9644
(Ntp9645
s(g24
g2
I43
g3
tp9646
(Ntp9647
s(g12
g2
I6
g13
tp9648
(Ntp9649
s(g12
g6
I162
g13
tp9650
(Ntp9651
s(g24
g6
I218
g13
tp9652
(Ntp9653
s(g9
g6
I191
g13
tp9654
(Ntp9655
s(g18
g2
I96
g3
tp9656
(Ntp9657
s(g1
g6
I211
g13
tp9658
(Ntp9659
s(g24
g2
I57
g13
tp9660
(Ntp9661
s(g12
g2
I83
g13
tp9662
(Ntp9663
s(g12
g6
I159
g13
tp9664
(Ntp9665
s(g24
g6
I173
g13
tp9666
(Ntp9667
s(g18
g2
I100
g13
tp9668
(Ntp9669
s(g21
g2
I123
g13
tp9670
(Ntp9671
s(g1
g6
I149
g3
tp9672
(Ntp9673
s(g9
g6
I45
g13
tp9674
(Ntp9675
s(g12
g25
I78
g13
tp9676
(Ntp9677
s(g18
g2
I81
g13
tp9678
(Ntp9679
s(g12
g6
I180
g13
tp9680
(Ntp9681
s(g21
g25
I51
g13
tp9682
(Ntp9683
s(g21
g2
I122
g3
tp9684
(Ntp9685
s(g1
g6
I128
g3
tp9686
(Ntp9687
s(g9
g2
I128
g3
tp9688
(Ntp9689
s(g18
g2
I74
g13
tp9690
(Ntp9691
s(g21
g2
I13
g13
tp9692
(Ntp9693
s(g9
g2
I124
g3
tp9694
(Ntp9695
s(g9
g6
I225
g13
tp9696
(Ntp9697
s(g21
g6
I167
g3
tp9698
(Ntp9699
s(g12
g6
I168
g3
tp9700
(Ntp9701
s(g24
g6
I7
g3
tp9702
(Ntp9703
s(g24
g6
I147
g3
tp9704
(Ntp9705
s(g9
g25
I54
g13
tp9706
(Ntp9707
s(g12
g2
I16
g3
tp9708
(Ntp9709
s(g1
g6
I216
g13
tp9710
(Ntp9711
s(g24
g2
I18
g3
tp9712
(Ntp9713
s(g12
g2
I20
g13
tp9714
(Ntp9715
s(g9
g25
I91
g13
tp9716
(Ntp9717
s(g24
g6
I132
g3
tp9718
(Ntp9719
s(g12
g2
I32
g3
tp9720
(Ntp9721
s(g18
g25
I51
g13
tp9722
(Ntp9723
s(g21
g2
I19
g3
tp9724
(Ntp9725
s(g12
g2
I97
g13
tp9726
(Ntp9727
s(g24
g6
I191
g13
tp9728
(Ntp9729
s(g24
g6
I105
g3
tp9730
(Ntp9731
s(g9
g6
I150
g13
tp9732
(Ntp9733
s(g18
g2
I2
g13
tp9734
(Ntp9735
s(g1
g25
I78
g3
tp9736
(Ntp9737
s(g1
g6
I54
g13
tp9738
(Ntp9739
s(g9
g6
I154
g3
tp9740
(Ntp9741
s(g24
g6
I82
g3
tp9742
(Ntp9743
s(g12
g6
I166
g13
tp9744
(Ntp9745
s(g24
g6
I198
g13
tp9746
(Ntp9747
s(g21
g6
I216
g3
tp9748
(Ntp9749
s(g1
g6
I164
g13
tp9750
(Ntp9751
s(g12
g2
I87
g13
tp9752
(Ntp9753
s(g12
g6
I147
g13
tp9754
(Ntp9755
s(g24
g6
I169
g13
tp9756
(Ntp9757
s(g12
g25
I38
g3
tp9758
(Ntp9759
s(g9
g25
I99
g13
tp9760
(Ntp9761
s(g9
g6
I49
g13
tp9762
(Ntp9763
s(g12
g25
I74
g13
tp9764
(Ntp9765
s(g21
g6
I138
g3
tp9766
(Ntp9767
s(g1
g6
I137
g13
tp9768
(Ntp9769
s(g9
g6
I192
g3
tp9770
(Ntp9771
s(g12
g2
I66
g3
tp9772
(Ntp9773
s(g21
g2
I40
g13
tp9774
(Ntp9775
s(g24
g6
I176
g13
tp9776
(Ntp9777
s(g21
g6
I118
g3
tp9778
(Ntp9779
s(g1
g2
I77
g3
tp9780
(Ntp9781
s(g24
g2
I47
g3
tp9782
(Ntp9783
s(g12
g25
I100
g3
tp9784
(Ntp9785
s(g18
g25
I114
g13
tp9786
(Ntp9787
s(g9
g2
I17
g3
tp9788
(Ntp9789
s(g9
g6
I164
g3
tp9790
(Ntp9791
s(g12
g2
I50
g13
tp9792
(Ntp9793
s(g21
g6
I109
g3
tp9794
(Ntp9795
s(g18
g2
I78
g13
tp9796
(Ntp9797
s(g21
g2
I1
g13
tp9798
(Ntp9799
s(g21
g2
I102
g3
tp9800
(Ntp9801
s(g1
g2
I115
g3
tp9802
(Ntp9803
s(g12
g25
I45
g13
tp9804
(Ntp9805
s(g21
g6
I222
g3
tp9806
(Ntp9807
s(g9
g25
I123
g3
tp9808
(Ntp9809
s(g9
g25
I50
g13
tp9810
(Ntp9811
s(g24
g2
I68
g3
tp9812
(Ntp9813
s(g18
g2
I48
g13
tp9814
(Ntp9815
s(g12
g6
I23
g13
tp9816
(Ntp9817
s(g9
g25
I77
g13
tp9818
(Ntp9819
s(g24
g25
I126
g3
tp9820
(Ntp9821
s(g9
g25
I71
g13
tp9822
(Ntp9823
s(g12
g6
I192
g13
tp9824
(Ntp9825
s(g18
g25
I74
g3
tp9826
(Ntp9827
s(g24
g25
I26
g3
tp9828
(Ntp9829
s(g18
g25
I15
g13
tp9830
(Ntp9831
s(g9
g25
I41
g3
tp9832
(Ntp9833
s(g24
g2
I22
g3
tp9834
(Ntp9835
s(g12
g25
I27
g13
tp9836
(Ntp9837
s(g24
g6
I187
g13
tp9838
(Ntp9839
s(g9
g6
I217
g3
tp9840
(Ntp9841
s(g9
g25
I13
g3
tp9842
(Ntp9843
s(g9
g2
I120
g3
tp9844
(Ntp9845
s(g21
g25
I16
g3
tp9846
(Ntp9847
s(g9
g25
I44
g13
tp9848
(Ntp9849
s(g1
g6
I50
g13
tp9850
(Ntp9851
s(g18
g6
I68
g3
tp9852
(Ntp9853
s(g24
g6
I194
g13
tp9854
(Ntp9855
s(g21
g2
I80
g3
tp9856
(Ntp9857
s(g21
g25
I43
g3
tp9858
(Ntp9859
s(g9
g6
I204
g13
tp9860
(Ntp9861
s(g1
g2
I17
g3
tp9862
(Ntp9863
s(g18
g2
I63
g13
tp9864
(Ntp9865
s(g21
g6
I226
g13
tp9866
(Ntp9867
s(g9
g2
I95
g3
tp9868
(Ntp9869
s(g1
g6
I160
g13
tp9870
(Ntp9871
s(g12
g2
I75
g13
tp9872
(Ntp9873
s(g9
g2
I2
g3
tp9874
(Ntp9875
s(g21
g2
I115
g13
tp9876
(Ntp9877
s(g18
g6
I198
g3
tp9878
(Ntp9879
s(g21
g2
I52
g3
tp9880
(Ntp9881
s(g1
g2
I33
g3
tp9882
(Ntp9883
s(g12
g2
I55
g3
tp9884
(Ntp9885
s(g1
g6
I149
g13
tp9886
(Ntp9887
s(g12
g6
I87
g3
tp9888
(Ntp9889
s(g21
g2
I123
g3
tp9890
(Ntp9891
s(g9
g2
I13
g3
tp9892
(Ntp9893
s(g9
g2
I129
g3
tp9894
(Ntp9895
s(g21
g2
I44
g13
tp9896
(Ntp9897
s(g24
g6
I188
g13
tp9898
(Ntp9899
s(g12
g25
I42
g3
tp9900
(Ntp9901
s(g21
g2
I125
g13
tp9902
(Ntp9903
s(g9
g6
I226
g13
tp9904
(Ntp9905
s(g9
g6
I72
g3
tp9906
(Ntp9907
s(g9
g6
I30
g13
tp9908
(Ntp9909
s(g1
g25
I99
g3
tp9910
(Ntp9911
s(g1
g6
I190
g13
tp9912
(Ntp9913
s(g12
g2
I54
g13
tp9914
(Ntp9915
s(g24
g25
I47
g3
tp9916
(Ntp9917
s(g12
g6
I169
g3
tp9918
(Ntp9919
s(g21
g2
I110
g3
tp9920
(Ntp9921
s(g1
g6
I182
g3
tp9922
(Ntp9923
s(g18
g2
I11
g3
tp9924
(Ntp9925
s(g1
g2
I7
g3
tp9926
(Ntp9927
s(g9
g6
I203
g13
tp9928
(Ntp9929
s(g9
g6
I80
g13
tp9930
(Ntp9931
s(g12
g25
I41
g13
tp9932
(Ntp9933
s(g9
g25
I62
g13
tp9934
(Ntp9935
s(g18
g2
I52
g13
tp9936
(Ntp9937
s(g9
g25
I73
g13
tp9938
(Ntp9939
s(g12
g2
I33
g3
tp9940
(Ntp9941
s(g21
g25
I110
g13
tp9942
(Ntp9943
s(g18
g25
I48
g3
tp9944
(Ntp9945
s(g21
g25
I25
g13
tp9946
(Ntp9947
s(g1
g2
I76
g3
tp9948
(Ntp9949
s(g24
g6
I217
g3
tp9950
(Ntp9951
s(g18
g2
I45
g13
tp9952
(Ntp9953
s(g21
g25
I90
g3
tp9954
(Ntp9955
s(g12
g25
I23
g13
tp9956
(Ntp9957
s(g12
g25
I81
g3
tp9958
(Ntp9959
s(g12
g25
I12
g3
tp9960
(Ntp9961
s(g9
g6
I39
g3
tp9962
(Ntp9963
s(g9
g25
I40
g13
tp9964
(Ntp9965
s(g24
g6
I194
g3
tp9966
(Ntp9967
s(g1
g6
I121
g3
tp9968
(Ntp9969
s(g24
g6
I206
g13
tp9970
(Ntp9971
s(g12
g25
I3
g3
tp9972
(Ntp9973
s(g18
g2
I51
g13
tp9974
(Ntp9975
s(g12
g25
I39
g3
tp9976
(Ntp9977
s(g1
g6
I172
g13
tp9978
(Ntp9979
s(g24
g6
I145
g13
tp9980
(Ntp9981
s(g24
g25
I22
g3
tp9982
(Ntp9983
s(g9
g6
I77
g3
tp9984
(Ntp9985
s(g1
g2
I50
g3
tp9986
(Ntp9987
s(g9
g6
I57
g13
tp9988
(Ntp9989
s(g1
g6
I145
g13
tp9990
(Ntp9991
s(g24
g25
I65
g13
tp9992
(Ntp9993
s(g24
g6
I184
g13
tp9994
(Ntp9995
s(g24
g6
I35
g13
tp9996
(Ntp9997
s(g9
g6
I49
g3
tp9998
(Ntp9999
s(g24
g25
I11
g3
tp10000
(Ntp10001
s(g1
g2
I37
g3
tp10002
(Ntp10003
s(g9
g6
I230
g13
tp10004
(Ntp10005
s(g24
g6
I78
g3
tp10006
(Ntp10007
s(g21
g25
I11
g13
tp10008
(Ntp10009
s(g18
g25
I100
g3
tp10010
(Ntp10011
s(g1
g6
I186
g13
tp10012
(Ntp10013
s(g12
g2
I42
g13
tp10014
(Ntp10015
s(g21
g2
I25
g13
tp10016
(Ntp10017
s(g18
g6
I203
g13
tp10018
(Ntp10019
s(g9
g6
I207
g13
tp10020
(Ntp10021
s(g9
g6
I84
g13
tp10022
(Ntp10023
s(g12
g25
I37
g13
tp10024
(Ntp10025
s(g21
g25
I14
g3
tp10026
(Ntp10027
s(g21
g6
I160
g3
tp10028
(Ntp10029
s(g21
g25
I96
g13
tp10030
(Ntp10031
s(g24
g6
I29
g13
tp10032
(Ntp10033
s(g9
g25
I117
g13
tp10034
(Ntp10035
s(g24
g6
I189
g3
tp10036
(Ntp10037
s(g21
g6
I140
g3
tp10038
(Ntp10039
s(g21
g25
I106
g13
tp10040
(Ntp10041
s(g21
g25
I1
g3
tp10042
(Ntp10043
s(g24
g2
I21
g3
tp10044
(Ntp10045
s(g1
g25
I3
g13
tp10046
(Ntp10047
s(g21
g25
I21
g13
tp10048
(Ntp10049
s(g24
g6
I224
g13
tp10050
(Ntp10051
s(g9
g2
I59
g3
tp10052
(Ntp10053
s(g9
g6
I183
g3
tp10054
(Ntp10055
s(g18
g2
I33
g13
tp10056
(Ntp10057
s(g18
g6
I189
g13
tp10058
(Ntp10059
s(g21
g6
I187
g3
tp10060
(Ntp10061
s(g18
g2
I90
g3
tp10062
(Ntp10063
s(g9
g6
I106
g13
tp10064
(Ntp10065
s(g21
g6
I126
g3
tp10066
(Ntp10067
s(g9
g25
I43
g13
tp10068
(Ntp10069
s(g9
g6
I180
g13
tp10070
(Ntp10071
s(g1
g25
I40
g13
tp10072
(Ntp10073
s(g24
g6
I65
g3
tp10074
(Ntp10075
s(g18
g2
I102
g3
tp10076
(Ntp10077
s(g12
g6
I74
g13
tp10078
(Ntp10079
s(g24
g2
I62
g3
tp10080
(Ntp10081
s(g9
g25
I72
g3
tp10082
(Ntp10083
s(g1
g2
I23
g13
tp10084
(Ntp10085
s(g1
g25
I34
g13
tp10086
(Ntp10087
s(g12
g6
I39
g13
tp10088
(Ntp10089
s(g18
g2
I55
g13
tp10090
(Ntp10091
s(g9
g25
I115
g3
tp10092
(Ntp10093
s(g24
g2
I124
g3
tp10094
(Ntp10095
s(g9
g6
I123
g13
tp10096
(Ntp10097
s(g9
g2
I130
g3
tp10098
(Ntp10099
s(g1
g2
I54
g13
tp10100
(Ntp10101
s(g18
g25
I131
g13
tp10102
(Ntp10103
s(g1
g6
I157
g13
tp10104
(Ntp10105
s(g1
g2
I1
g13
tp10106
(Ntp10107
s(g21
g6
I104
g13
tp10108
(Ntp10109
s(g1
g25
I95
g3
tp10110
(Ntp10111
s(g24
g25
I69
g13
tp10112
(Ntp10113
s(g24
g6
I164
g13
tp10114
(Ntp10115
s(g24
g6
I47
g13
tp10116
(Ntp10117
s(g21
g2
I10
g3
tp10118
(Ntp10119
s(g1
g6
I183
g3
tp10120
(Ntp10121
s(g21
g25
I7
g13
tp10122
(Ntp10123
s(g21
g6
I133
g13
tp10124
(Ntp10125
s(g12
g2
I22
g3
tp10126
(Ntp10127
s(g12
g2
I46
g13
tp10128
(Ntp10129
s(g24
g25
I108
g13
tp10130
(Ntp10131
s(g9
g2
I71
g3
tp10132
(Ntp10133
s(g9
g2
I44
g3
tp10134
(Ntp10135
s(g18
g6
I207
g13
tp10136
(Ntp10137
s(g9
g6
I211
g13
tp10138
(Ntp10139
s(g9
g6
I88
g13
tp10140
(Ntp10141
s(g21
g6
I215
g3
tp10142
(Ntp10143
s(g21
g2
I88
g3
tp10144
(Ntp10145
s(g24
g6
I40
g3
tp10146
(Ntp10147
s(g12
g2
I13
g3
tp10148
(Ntp10149
s(g24
g25
I91
g13
tp10150
(Ntp10151
s(g21
g2
I67
g13
tp10152
(Ntp10153
s(g24
g6
I25
g13
tp10154
(Ntp10155
s(g9
g2
I87
g3
tp10156
(Ntp10157
s(g24
g2
I98
g3
tp10158
(Ntp10159
s(g9
g6
I65
g13
tp10160
(Ntp10161
s(g1
g25
I7
g13
tp10162
(Ntp10163
s(g21
g25
I17
g13
tp10164
(Ntp10165
s(g9
g6
I118
g3
tp10166
(Ntp10167
s(g24
g6
I37
g3
tp10168
(Ntp10169
s(g21
g6
I4
g3
tp10170
(Ntp10171
s(g12
g6
I131
g3
tp10172
(Ntp10173
s(g9
g25
I46
g3
tp10174
(Ntp10175
s(g9
g6
I110
g13
tp10176
(Ntp10177
s(g1
g25
I44
g13
tp10178
(Ntp10179
s(g9
g25
I2
g3
tp10180
(Ntp10181
s(g21
g25
I76
g3
tp10182
(Ntp10183
s(g21
g2
I85
g13
tp10184
(Ntp10185
s(g12
g6
I78
g13
tp10186
(Ntp10187
s(g9
g25
I20
g13
tp10188
(Ntp10189
s(g18
g2
I43
g13
tp10190
(Ntp10191
s(g1
g2
I19
g13
tp10192
(Ntp10193
s(g24
g25
I39
g3
tp10194
(Ntp10195
s(g9
g6
I87
g13
tp10196
(Ntp10197
s(g12
g6
I59
g13
tp10198
(Ntp10199
s(g1
g2
I22
g3
tp10200
(Ntp10201
s(g24
g25
I1
g3
tp10202
(Ntp10203
s(g9
g6
I101
g3
tp10204
(Ntp10205
s(g9
g2
I58
g3
tp10206
(Ntp10207
s(g12
g25
I98
g3
tp10208
(Ntp10209
s(g21
g6
I186
g3
tp10210
(Ntp10211
s(g12
g6
I80
g13
tp10212
(Ntp10213
s(g9
g6
I205
g3
tp10214
(Ntp10215
s(g1
g2
I50
g13
tp10216
(Ntp10217
s(g1
g2
I13
g13
tp10218
(Ntp10219
s(g1
g2
I68
g3
tp10220
(Ntp10221
s(g18
g2
I84
g3
tp10222
(Ntp10223
s(g24
g25
I73
g13
tp10224
(Ntp10225
s(g12
g6
I84
g3
tp10226
(Ntp10227
s(g21
g25
I66
g3
tp10228
(Ntp10229
s(g24
g2
I63
g3
tp10230
(Ntp10231
s(g24
g2
I80
g13
tp10232
(Ntp10233
s(g1
g2
I120
g3
tp10234
(Ntp10235
s(g9
g6
I31
g3
tp10236
(Ntp10237
s(g21
g6
I185
g13
tp10238
(Ntp10239
s(g24
g25
I112
g13
tp10240
(Ntp10241
s(g21
g6
I161
g3
tp10242
(Ntp10243
s(g24
g25
I124
g3
tp10244
(Ntp10245
s(g9
g6
I123
g3
tp10246
(Ntp10247
s(g1
g2
I99
g3
tp10248
(Ntp10249
s(g9
g6
I92
g13
tp10250
(Ntp10251
s(g9
g6
I18
g3
tp10252
(Ntp10253
s(g24
g25
I95
g13
tp10254
(Ntp10255
s(g24
g2
I20
g3
tp10256
(Ntp10257
s(g24
g6
I5
g13
tp10258
(Ntp10259
s(g1
g25
I7
g3
tp10260
(Ntp10261
s(g12
g25
I47
g3
tp10262
(Ntp10263
s(g18
g6
I156
g13
tp10264
(Ntp10265
s(g9
g2
I66
g13
tp10266
(Ntp10267
s(g9
g6
I9
g13
tp10268
(Ntp10269
s(g9
g6
I69
g13
tp10270
(Ntp10271
s(g1
g25
I11
g13
tp10272
(Ntp10273
s(g21
g25
I45
g13
tp10274
(Ntp10275
s(g18
g25
I90
g3
tp10276
(Ntp10277
s(g24
g25
I42
g3
tp10278
(Ntp10279
s(g9
g25
I89
g3
tp10280
(Ntp10281
s(g24
g25
I70
g13
tp10282
(Ntp10283
s(g24
g2
I1
g3
tp10284
(Ntp10285
s(g18
g6
I181
g13
tp10286
(Ntp10287
s(g18
g6
I46
g13
tp10288
(Ntp10289
s(g18
g6
I33
g3
tp10290
(Ntp10291
s(g9
g6
I114
g13
tp10292
(Ntp10293
s(g9
g2
I104
g3
tp10294
(Ntp10295
s(g1
g25
I16
g13
tp10296
(Ntp10297
s(g21
g25
I32
g3
tp10298
(Ntp10299
s(g21
g2
I105
g13
tp10300
(Ntp10301
s(g12
g6
I66
g13
tp10302
(Ntp10303
s(g24
g6
I122
g13
tp10304
(Ntp10305
s(g9
g25
I16
g13
tp10306
(Ntp10307
s(g12
g6
I53
g13
tp10308
(Ntp10309
s(g1
g2
I31
g13
tp10310
(Ntp10311
s(g21
g2
I109
g3
tp10312
(Ntp10313
s(g21
g25
I59
g3
tp10314
(Ntp10315
s(g24
g2
I123
g3
tp10316
(Ntp10317
s(g21
g25
I118
g3
tp10318
(Ntp10319
s(g18
g6
I123
g3
tp10320
(Ntp10321
s(g18
g6
I16
g13
tp10322
(Ntp10323
s(g9
g2
I131
g3
tp10324
(Ntp10325
s(g9
g2
I50
g3
tp10326
(Ntp10327
s(g21
g6
I222
g13
tp10328
(Ntp10329
s(g1
g6
I207
g13
tp10330
(Ntp10331
s(g21
g2
I47
g3
tp10332
(Ntp10333
s(g9
g6
I78
g3
tp10334
(Ntp10335
s(g18
g2
I35
g13
tp10336
(Ntp10337
s(g18
g2
I3
g3
tp10338
(Ntp10339
s(g12
g6
I84
g13
tp10340
(Ntp10341
s(g24
g6
I93
g3
tp10342
(Ntp10343
s(g18
g2
I92
g3
tp10344
(Ntp10345
s(g1
g2
I9
g13
tp10346
(Ntp10347
s(g21
g2
I11
g3
tp10348
(Ntp10349
s(g1
g6
I139
g3
tp10350
(Ntp10351
s(g1
g6
I180
g3
tp10352
(Ntp10353
s(g24
g25
I77
g13
tp10354
(Ntp10355
s(g1
g6
I32
g3
tp10356
(Ntp10357
s(g21
g6
I183
g13
tp10358
(Ntp10359
s(g9
g6
I139
g3
tp10360
(Ntp10361
s(g21
g6
I189
g13
tp10362
(Ntp10363
s(g1
g6
I55
g3
tp10364
(Ntp10365
s(g24
g25
I116
g13
tp10366
(Ntp10367
s(g24
g6
I80
g3
tp10368
(Ntp10369
s(g9
g2
I76
g13
tp10370
(Ntp10371
s(g24
g6
I1
g13
tp10372
(Ntp10373
s(g24
g6
I168
g3
tp10374
(Ntp10375
s(g18
g6
I13
g3
tp10376
(Ntp10377
s(g1
g6
I157
g3
tp10378
(Ntp10379
s(g21
g6
I88
g13
tp10380
(Ntp10381
s(g24
g6
I204
g3
tp10382
(Ntp10383
s(g24
g6
I212
g13
tp10384
(Ntp10385
s(g24
g6
I95
g13
tp10386
(Ntp10387
s(g18
g6
I169
g13
tp10388
(Ntp10389
s(g18
g6
I34
g13
tp10390
(Ntp10391
s(g9
g2
I47
g13
tp10392
(Ntp10393
s(g21
g25
I77
g3
tp10394
(Ntp10395
s(g9
g6
I118
g13
tp10396
(Ntp10397
s(g18
g6
I143
g3
tp10398
(Ntp10399
s(g1
g25
I20
g13
tp10400
(Ntp10401
s(g24
g25
I60
g13
tp10402
(Ntp10403
s(g12
g6
I70
g13
tp10404
(Ntp10405
s(g12
g2
I91
g3
tp10406
(Ntp10407
s(g18
g6
I103
g3
tp10408
(Ntp10409
s(g12
g6
I9
g13
tp10410
(Ntp10411
s(g1
g6
I162
g13
tp10412
(Ntp10413
s(g9
g25
I20
g3
tp10414
(Ntp10415
s(g24
g6
I22
g3
tp10416
(Ntp10417
s(g1
g25
I106
g13
tp10418
(Ntp10419
s(g12
g25
I115
g3
tp10420
(Ntp10421
s(g21
g25
I76
g13
tp10422
(Ntp10423
s(g24
g6
I73
g13
tp10424
(Ntp10425
s(g9
g6
I106
g3
tp10426
(Ntp10427
s(g9
g6
I222
g3
tp10428
(Ntp10429
s(g24
g6
I15
g3
tp10430
(Ntp10431
s(g18
g6
I20
g13
tp10432
(Ntp10433
s(g1
g2
I32
g13
tp10434
(Ntp10435
s(g18
g25
I94
g3
tp10436
(Ntp10437
s(g24
g25
I102
g3
tp10438
(Ntp10439
s(g1
g2
I39
g3
tp10440
(Ntp10441
s(g1
g25
I115
g13
tp10442
(Ntp10443
s(g24
g2
I85
g13
tp10444
(Ntp10445
s(g12
g6
I40
g13
tp10446
(Ntp10447
s(g9
g6
I229
g3
tp10448
(Ntp10449
s(g18
g25
I98
g3
tp10450
(Ntp10451
s(g9
g25
I49
g3
tp10452
(Ntp10453
s(g1
g2
I126
g13
tp10454
(Ntp10455
s(g1
g25
I92
g13
tp10456
(Ntp10457
s(g21
g6
I171
g13
tp10458
(Ntp10459
s(g21
g6
I205
g3
tp10460
(Ntp10461
s(g18
g25
I28
g13
tp10462
(Ntp10463
s(g9
g25
I26
g3
tp10464
(Ntp10465
s(g12
g6
I106
g3
tp10466
(Ntp10467
s(g1
g25
I101
g13
tp10468
(Ntp10469
s(g9
g6
I19
g3
tp10470
(Ntp10471
s(g21
g25
I3
g3
tp10472
(Ntp10473
s(g9
g2
I68
g3
tp10474
(Ntp10475
s(g9
g2
I112
g13
tp10476
(Ntp10477
s(g21
g6
I208
g3
tp10478
(Ntp10479
s(g18
g2
I43
g3
tp10480
(Ntp10481
s(g1
g2
I104
g13
tp10482
(Ntp10483
s(g24
g25
I112
g3
tp10484
(Ntp10485
s(g24
g6
I160
g3
tp10486
(Ntp10487
s(g1
g2
I46
g3
tp10488
(Ntp10489
s(g21
g2
I73
g3
tp10490
(Ntp10491
s(g21
g25
I81
g3
tp10492
(Ntp10493
s(g24
g2
I101
g3
tp10494
(Ntp10495
s(g1
g25
I135
g3
tp10496
(Ntp10497
s(g24
g6
I67
g3
tp10498
(Ntp10499
s(g1
g6
I116
g13
tp10500
(Ntp10501
s(g21
g6
I92
g13
tp10502
(Ntp10503
s(g1
g2
I113
g13
tp10504
(Ntp10505
s(g24
g6
I91
g13
tp10506
(Ntp10507
s(g1
g6
I163
g3
tp10508
(Ntp10509
s(g18
g6
I38
g13
tp10510
(Ntp10511
s(g9
g2
I83
g13
tp10512
(Ntp10513
s(g21
g6
I110
g3
tp10514
(Ntp10515
s(g24
g6
I52
g3
tp10516
(Ntp10517
s(g24
g2
I55
g3
tp10518
(Ntp10519
s(g1
g2
I11
g3
tp10520
(Ntp10521
s(g24
g6
I113
g3
tp10522
(Ntp10523
s(g24
g6
I98
g13
tp10524
(Ntp10525
s(g9
g25
I120
g3
tp10526
(Ntp10527
s(g1
g25
I110
g13
tp10528
(Ntp10529
s(g21
g25
I72
g13
tp10530
(Ntp10531
s(g24
g6
I53
g13
tp10532
(Ntp10533
s(g24
g25
I43
g13
tp10534
(Ntp10535
s(g12
g6
I149
g13
tp10536
(Ntp10537
s(g21
g2
I32
g3
tp10538
(Ntp10539
s(g18
g6
I8
g13
tp10540
(Ntp10541
s(g9
g25
I99
g3
tp10542
(Ntp10543
s(g1
g25
I119
g13
tp10544
(Ntp10545
s(g24
g2
I81
g13
tp10546
(Ntp10547
s(g1
g6
I181
g3
tp10548
(Ntp10549
s(g24
g6
I92
g13
tp10550
(Ntp10551
s(g12
g25
I62
g3
tp10552
(Ntp10553
s(g21
g6
I131
g3
tp10554
(Ntp10555
s(g1
g2
I122
g13
tp10556
(Ntp10557
s(g18
g6
I33
g13
tp10558
(Ntp10559
s(g9
g2
I73
g3
tp10560
(Ntp10561
s(g24
g6
I221
g3
tp10562
(Ntp10563
s(g1
g25
I64
g13
tp10564
(Ntp10565
s(g12
g2
I90
g3
tp10566
(Ntp10567
s(g21
g6
I213
g3
tp10568
(Ntp10569
s(g21
g2
I101
g3
tp10570
(Ntp10571
s(g21
g2
I90
g3
tp10572
(Ntp10573
s(g9
g2
I96
g3
tp10574
(Ntp10575
s(g18
g25
I24
g13
tp10576
(Ntp10577
s(g18
g6
I119
g13
tp10578
(Ntp10579
s(g9
g2
I92
g3
tp10580
(Ntp10581
s(g1
g25
I105
g13
tp10582
(Ntp10583
s(g21
g2
I85
g3
tp10584
(Ntp10585
s(g9
g6
I116
g3
tp10586
(Ntp10587
s(g12
g6
I200
g3
tp10588
(Ntp10589
s(g1
g6
I143
g3
tp10590
(Ntp10591
s(g24
g6
I24
g3
tp10592
(Ntp10593
s(g1
g2
I84
g13
tp10594
(Ntp10595
s(g24
g6
I179
g3
tp10596
(Ntp10597
s(g18
g25
I80
g3
tp10598
(Ntp10599
s(g1
g25
I4
g3
tp10600
(Ntp10601
s(g12
g25
I48
g3
tp10602
(Ntp10603
s(g21
g25
I13
g13
tp10604
(Ntp10605
s(g18
g25
I102
g13
tp10606
(Ntp10607
s(g1
g6
I112
g13
tp10608
(Ntp10609
s(g1
g2
I92
g3
tp10610
(Ntp10611
s(g21
g6
I80
g13
tp10612
(Ntp10613
s(g24
g6
I164
g3
tp10614
(Ntp10615
s(g1
g2
I125
g13
tp10616
(Ntp10617
s(g12
g2
I84
g3
tp10618
(Ntp10619
s(g24
g25
I37
g3
tp10620
(Ntp10621
s(g21
g2
I115
g3
tp10622
(Ntp10623
s(g9
g25
I94
g3
tp10624
(Ntp10625
s(g24
g25
I14
g13
tp10626
(Ntp10627
s(g1
g6
I25
g13
tp10628
(Ntp10629
s(g9
g25
I21
g3
tp10630
(Ntp10631
s(g24
g25
I4
g13
tp10632
(Ntp10633
s(g24
g6
I110
g13
tp10634
(Ntp10635
s(g1
g25
I110
g3
tp10636
(Ntp10637
s(g24
g6
I14
g3
tp10638
(Ntp10639
s(g1
g6
I78
g13
tp10640
(Ntp10641
s(g21
g6
I184
g3
tp10642
(Ntp10643
s(g24
g6
I49
g13
tp10644
(Ntp10645
s(g24
g25
I47
g13
tp10646
(Ntp10647
s(g24
g6
I150
g3
tp10648
(Ntp10649
s(g1
g2
I70
g3
tp10650
(Ntp10651
s(g18
g6
I12
g13
tp10652
(Ntp10653
s(g12
g6
I49
g3
tp10654
(Ntp10655
s(g21
g25
I103
g3
tp10656
(Ntp10657
s(g9
g2
I101
g3
tp10658
(Ntp10659
s(g1
g25
I123
g13
tp10660
(Ntp10661
s(g24
g2
I93
g13
tp10662
(Ntp10663
s(g12
g25
I82
g3
tp10664
(Ntp10665
s(g21
g6
I106
g3
tp10666
(Ntp10667
s(g24
g6
I88
g13
tp10668
(Ntp10669
s(g1
g2
I73
g3
tp10670
(Ntp10671
s(g9
g6
I32
g3
tp10672
(Ntp10673
s(g12
g6
I108
g13
tp10674
(Ntp10675
s(g18
g6
I37
g13
tp10676
(Ntp10677
s(g1
g25
I68
g13
tp10678
(Ntp10679
s(g24
g2
I2
g3
tp10680
(Ntp10681
s(g1
g6
I140
g3
tp10682
(Ntp10683
s(g1
g2
I109
g3
tp10684
(Ntp10685
s(g21
g25
I82
g3
tp10686
(Ntp10687
s(g9
g25
I124
g3
tp10688
(Ntp10689
s(g12
g25
I73
g3
tp10690
(Ntp10691
s(g24
g2
I68
g13
tp10692
(Ntp10693
s(g12
g25
I4
g3
tp10694
(Ntp10695
s(g12
g6
I107
g3
tp10696
(Ntp10697
s(g18
g25
I20
g13
tp10698
(Ntp10699
s(g9
g6
I47
g3
tp10700
(Ntp10701
s(g9
g6
I16
g3
tp10702
(Ntp10703
s(g18
g6
I107
g13
tp10704
(Ntp10705
s(g9
g6
I132
g3
tp10706
(Ntp10707
s(g21
g6
I209
g3
tp10708
(Ntp10709
s(g1
g25
I109
g13
tp10710
(Ntp10711
s(g21
g2
I70
g3
tp10712
(Ntp10713
s(g21
g2
I22
g3
tp10714
(Ntp10715
s(g24
g25
I17
g3
tp10716
(Ntp10717
s(g1
g2
I47
g3
tp10718
(Ntp10719
s(g18
g25
I88
g3
tp10720
(Ntp10721
s(g9
g25
I91
g3
tp10722
(Ntp10723
s(g24
g2
I100
g3
tp10724
(Ntp10725
s(g12
g25
I31
g3
tp10726
(Ntp10727
s(g21
g6
I78
g13
tp10728
(Ntp10729
s(g24
g25
I30
g3
tp10730
(Ntp10731
s(g18
g25
I98
g13
tp10732
(Ntp10733
s(g1
g6
I124
g13
tp10734
(Ntp10735
s(g18
g6
I93
g13
tp10736
(Ntp10737
s(g21
g6
I84
g13
tp10738
(Ntp10739
s(g1
g2
I121
g13
tp10740
(Ntp10741
s(g18
g25
I106
g3
tp10742
(Ntp10743
s(g24
g25
I58
g3
tp10744
(Ntp10745
s(g21
g6
I155
g13
tp10746
(Ntp10747
s(g9
g25
I9
g3
tp10748
(Ntp10749
s(g18
g2
I31
g3
tp10750
(Ntp10751
s(g24
g25
I18
g13
tp10752
(Ntp10753
s(g9
g6
I57
g3
tp10754
(Ntp10755
s(g1
g6
I35
g3
tp10756
(Ntp10757
s(g21
g25
I53
g3
tp10758
(Ntp10759
s(g9
g2
I110
g3
tp10760
(Ntp10761
s(g9
g2
I88
g3
tp10762
(Ntp10763
s(g18
g25
I27
g13
tp10764
(Ntp10765
s(g21
g25
I112
g3
tp10766
(Ntp10767
s(g1
g6
I101
g13
tp10768
(Ntp10769
s(g18
g6
I100
g3
tp10770
(Ntp10771
s(g12
g6
I29
g3
tp10772
(Ntp10773
s(g1
g6
I74
g13
tp10774
(Ntp10775
s(g21
g25
I11
g3
tp10776
(Ntp10777
s(g24
g2
I75
g3
tp10778
(Ntp10779
s(g9
g2
I61
g13
tp10780
(Ntp10781
s(g1
g6
I137
g3
tp10782
(Ntp10783
s(g9
g2
I9
g13
tp10784
(Ntp10785
s(g12
g6
I159
g3
tp10786
(Ntp10787
s(g24
g2
I51
g3
tp10788
(Ntp10789
s(g24
g6
I91
g3
tp10790
(Ntp10791
s(g24
g6
I68
g13
tp10792
(Ntp10793
s(g21
g6
I31
g13
tp10794
(Ntp10795
s(g12
g6
I119
g3
tp10796
(Ntp10797
s(g1
g6
I53
g3
tp10798
(Ntp10799
s(g9
g6
I141
g13
tp10800
(Ntp10801
s(g1
g6
I132
g3
tp10802
(Ntp10803
s(g9
g2
I97
g3
tp10804
(Ntp10805
s(g18
g25
I16
g13
tp10806
(Ntp10807
s(g18
g6
I111
g13
tp10808
(Ntp10809
s(g1
g25
I81
g13
tp10810
(Ntp10811
s(g24
g6
I151
g3
tp10812
(Ntp10813
s(g12
g6
I154
g13
tp10814
(Ntp10815
s(g9
g6
I12
g3
tp10816
(Ntp10817
s(g12
g25
I81
g13
tp10818
(Ntp10819
s(g24
g6
I152
g3
tp10820
(Ntp10821
s(g24
g6
I197
g3
tp10822
(Ntp10823
s(g18
g2
I92
g13
tp10824
(Ntp10825
s(g21
g6
I100
g3
tp10826
(Ntp10827
s(g18
g25
I126
g13
tp10828
(Ntp10829
s(g24
g2
I18
g13
tp10830
(Ntp10831
s(g1
g6
I120
g13
tp10832
(Ntp10833
s(g18
g6
I81
g13
tp10834
(Ntp10835
s(g18
g2
I24
g13
tp10836
(Ntp10837
s(g21
g25
I86
g3
tp10838
(Ntp10839
s(g1
g2
I101
g13
tp10840
(Ntp10841
s(g1
g2
I108
g3
tp10842
(Ntp10843
s(g18
g25
I83
g13
tp10844
(Ntp10845
s(g9
g2
I27
g13
tp10846
(Ntp10847
s(g24
g25
I130
g3
tp10848
(Ntp10849
s(g18
g25
I23
g13
tp10850
(Ntp10851
s(g9
g6
I7
g3
tp10852
(Ntp10853
s(g9
g6
I161
g13
tp10854
(Ntp10855
s(g24
g6
I226
g3
tp10856
(Ntp10857
s(g24
g6
I9
g3
tp10858
(Ntp10859
s(g18
g2
I30
g3
tp10860
(Ntp10861
s(g24
g2
I38
g3
tp10862
(Ntp10863
s(g1
g6
I25
g3
tp10864
(Ntp10865
s(g12
g25
I35
g3
tp10866
(Ntp10867
s(g1
g6
I86
g13
tp10868
(Ntp10869
s(g24
g6
I142
g3
tp10870
(Ntp10871
s(g12
g6
I62
g3
tp10872
(Ntp10873
s(g24
g25
I54
g3
tp10874
(Ntp10875
s(g9
g2
I13
g13
tp10876
(Ntp10877
s(g1
g2
I82
g3
tp10878
(Ntp10879
s(g1
g6
I196
g13
tp10880
(Ntp10881
s(g21
g6
I19
g13
tp10882
(Ntp10883
s(g21
g25
I52
g3
tp10884
(Ntp10885
s(g9
g6
I145
g13
tp10886
(Ntp10887
s(g9
g6
I17
g3
tp10888
(Ntp10889
s(g1
g6
I41
g13
tp10890
(Ntp10891
s(g9
g6
I160
g3
tp10892
(Ntp10893
s(g9
g2
I70
g3
tp10894
(Ntp10895
s(g12
g2
I5
g13
tp10896
(Ntp10897
s(g21
g6
I214
g3
tp10898
(Ntp10899
s(g21
g2
I98
g3
tp10900
(Ntp10901
s(g18
g6
I99
g13
tp10902
(Ntp10903
s(g9
g25
I10
g3
tp10904
(Ntp10905
s(g24
g2
I79
g3
tp10906
(Ntp10907
s(g1
g2
I40
g3
tp10908
(Ntp10909
s(g9
g6
I242
g3
tp10910
(Ntp10911
s(g12
g2
I82
g13
tp10912
(Ntp10913
s(g12
g6
I158
g13
tp10914
(Ntp10915
s(g21
g2
I122
g13
tp10916
(Ntp10917
s(g21
g6
I128
g3
tp10918
(Ntp10919
s(g18
g25
I5
g13
tp10920
(Ntp10921
s(g18
g6
I120
g13
tp10922
(Ntp10923
s(g9
g6
I167
g13
tp10924
(Ntp10925
s(g12
g25
I77
g13
tp10926
(Ntp10927
s(g21
g6
I108
g3
tp10928
(Ntp10929
s(g18
g6
I83
g13
tp10930
(Ntp10931
s(g24
g2
I33
g13
tp10932
(Ntp10933
s(g18
g2
I80
g13
tp10934
(Ntp10935
s(g12
g6
I183
g13
tp10936
(Ntp10937
s(g24
g2
I53
g3
tp10938
(Ntp10939
s(g18
g25
I122
g13
tp10940
(Ntp10941
s(g24
g2
I30
g13
tp10942
(Ntp10943
s(g18
g6
I85
g13
tp10944
(Ntp10945
s(g9
g2
I27
g3
tp10946
(Ntp10947
s(g9
g6
I151
g3
tp10948
(Ntp10949
s(g24
g2
I58
g3
tp10950
(Ntp10951
s(g18
g2
I73
g13
tp10952
(Ntp10953
s(g24
g6
I97
g3
tp10954
(Ntp10955
s(g18
g6
I64
g3
tp10956
(Ntp10957
s(g9
g25
I109
g3
tp10958
(Ntp10959
s(g24
g2
I63
g13
tp10960
(Ntp10961
s(g1
g6
I82
g13
tp10962
(Ntp10963
s(g21
g2
I48
g3
tp10964
(Ntp10965
s(g9
g25
I83
g3
tp10966
(Ntp10967
s(g9
g6
I172
g13
tp10968
(Ntp10969
s(g24
g2
I28
g3
tp10970
(Ntp10971
s(g24
g2
I56
g3
tp10972
(Ntp10973
s(g9
g6
I232
g13
tp10974
(Ntp10975
s(g12
g2
I88
g3
tp10976
(Ntp10977
s(g18
g2
I95
g13
tp10978
(Ntp10979
s(g21
g2
I103
g3
tp10980
(Ntp10981
s(g1
g6
I192
g13
tp10982
(Ntp10983
s(g1
g6
I133
g3
tp10984
(Ntp10985
s(g12
g2
I96
g13
tp10986
(Ntp10987
s(g9
g2
I98
g3
tp10988
(Ntp10989
s(g24
g6
I102
g3
tp10990
(Ntp10991
s(g21
g6
I23
g13
tp10992
(Ntp10993
s(g9
g6
I149
g13
tp10994
(Ntp10995
s(g1
g25
I127
g3
tp10996
(Ntp10997
s(g12
g2
I87
g3
tp10998
(Ntp10999
s(g18
g25
I43
g13
tp11000
(Ntp11001
s(g1
g6
I53
g13
tp11002
(Ntp11003
s(g18
g6
I62
g3
tp11004
(Ntp11005
s(g12
g2
I10
g3
tp11006
(Ntp11007
s(g21
g2
I106
g3
tp11008
(Ntp11009
s(g24
g6
I199
g13
tp11010
(Ntp11011
s(g24
g6
I26
g3
tp11012
(Ntp11013
s(g24
g2
I12
g13
tp11014
(Ntp11015
s(g9
g2
I12
g3
tp11016
(Ntp11017
s(g12
g25
I21
g3
tp11018
(Ntp11019
s(g12
g2
I86
g13
tp11020
(Ntp11021
s(g12
g6
I146
g13
tp11022
(Ntp11023
s(g21
g2
I126
g13
tp11024
(Ntp11025
s(g12
g2
I45
g3
tp11026
(Ntp11027
s(g18
g6
I124
g13
tp11028
(Ntp11029
s(g9
g6
I171
g13
tp11030
(Ntp11031
s(g9
g6
I48
g13
tp11032
(Ntp11033
s(g12
g25
I73
g13
tp11034
(Ntp11035
s(g9
g2
I55
g3
tp11036
(Ntp11037
s(g9
g25
I88
g3
tp11038
(Ntp11039
s(g12
g25
I32
g3
tp11040
(Ntp11041
s(g24
g2
I45
g13
tp11042
(Ntp11043
s(g12
g6
I139
g13
tp11044
(Ntp11045
s(g24
g2
I26
g13
tp11046
(Ntp11047
s(g9
g6
I86
g3
tp11048
(Ntp11049
s(g18
g6
I73
g13
tp11050
(Ntp11051
s(g12
g2
I65
g3
tp11052
(Ntp11053
s(g24
g25
I53
g3
tp11054
(Ntp11055
s(g12
g6
I163
g3
tp11056
(Ntp11057
s(g9
g25
I14
g3
tp11058
(Ntp11059
s(g18
g2
I77
g13
tp11060
(Ntp11061
s(g12
g25
I44
g13
tp11062
(Ntp11063
s(g21
g25
I24
g3
tp11064
(Ntp11065
s(g9
g6
I202
g3
tp11066
(Ntp11067
s(g12
g6
I157
g13
tp11068
(Ntp11069
s(g24
g6
I175
g3
tp11070
(Ntp11071
s(g1
g2
I54
g3
tp11072
(Ntp11073
s(g9
g25
I70
g13
tp11074
(Ntp11075
s(g18
g25
I27
g3
tp11076
(Ntp11077
s(g1
g6
I138
g3
tp11078
(Ntp11079
s(g18
g2
I83
g13
tp11080
(Ntp11081
s(g18
g2
I40
g13
tp11082
(Ntp11083
s(g9
g2
I26
g3
tp11084
(Ntp11085
s(g12
g25
I71
g3
tp11086
(Ntp11087
s(g1
g6
I204
g13
tp11088
(Ntp11089
s(g12
g2
I100
g13
tp11090
(Ntp11091
s(g9
g6
I45
g3
tp11092
(Ntp11093
s(g21
g6
I11
g13
tp11094
(Ntp11095
s(g1
g2
I57
g3
tp11096
(Ntp11097
s(g1
g2
I100
g3
tp11098
(Ntp11099
s(g9
g6
I153
g13
tp11100
(Ntp11101
s(g12
g6
I116
g3
tp11102
(Ntp11103
s(g18
g25
I39
g13
tp11104
(Ntp11105
s(g1
g6
I49
g13
tp11106
(Ntp11107
s(g1
g6
I79
g3
tp11108
(Ntp11109
s(g9
g25
I108
g3
tp11110
(Ntp11111
s(g12
g25
I121
g3
tp11112
(Ntp11113
s(g24
g6
I195
g13
tp11114
(Ntp11115
s(g9
g6
I127
g3
tp11116
(Ntp11117
s(g12
g25
I29
g3
tp11118
(Ntp11119
s(g24
g25
I28
g3
tp11120
(Ntp11121
s(g9
g6
I91
g3
tp11122
(Ntp11123
s(g12
g2
I74
g13
tp11124
(Ntp11125
s(g24
g6
I150
g13
tp11126
(Ntp11127
s(g21
g2
I114
g13
tp11128
(Ntp11129
s(g9
g6
I175
g13
tp11130
(Ntp11131
s(g9
g6
I52
g13
tp11132
(Ntp11133
s(g12
g25
I69
g13
tp11134
(Ntp11135
s(g1
g6
I15
g13
tp11136
(Ntp11137
s(g1
g6
I148
g13
tp11138
(Ntp11139
s(g12
g2
I99
g13
tp11140
(Ntp11141
s(g12
g6
I143
g13
tp11142
(Ntp11143
s(g24
g6
I189
g13
tp11144
(Ntp11145
s(g24
g2
I102
g13
tp11146
(Ntp11147
s(g18
g6
I37
g3
tp11148
(Ntp11149
s(g21
g2
I28
g3
tp11150
(Ntp11151
s(g9
g6
I29
g13
tp11152
(Ntp11153
s(g21
g25
I60
g3
tp11154
(Ntp11155
s(g18
g6
I65
g3
tp11156
(Ntp11157
s(g24
g6
I128
g13
tp11158
(Ntp11159
s(g18
g6
I138
g13
tp11160
(Ntp11161
s(g18
g2
I65
g13
tp11162
(Ntp11163
s(g21
g2
I4
g13
tp11164
(Ntp11165
s(g9
g6
I202
g13
tp11166
(Ntp11167
s(g12
g25
I40
g13
tp11168
(Ntp11169
s(g24
g6
I225
g3
tp11170
(Ntp11171
s(g18
g6
I127
g3
tp11172
(Ntp11173
s(g21
g2
I49
g13
tp11174
(Ntp11175
s(g9
g25
I72
g13
tp11176
(Ntp11177
s(g24
g2
I112
g3
tp11178
(Ntp11179
s(g24
g2
I27
g3
tp11180
(Ntp11181
s(g1
g25
I149
g13
tp11182
(Ntp11183
s(g9
g6
I189
g3
tp11184
(Ntp11185
s(g9
g2
I99
g3
tp11186
(Ntp11187
s(g18
g25
I10
g13
tp11188
(Ntp11189
s(g18
g2
I80
g3
tp11190
(Ntp11191
s(g18
g2
I87
g13
tp11192
(Ntp11193
s(g18
g2
I44
g13
tp11194
(Ntp11195
s(g21
g2
I15
g3
tp11196
(Ntp11197
s(g12
g25
I22
g13
tp11198
(Ntp11199
s(g24
g6
I75
g3
tp11200
(Ntp11201
s(g9
g25
I107
g13
tp11202
(Ntp11203
s(g12
g6
I12
g3
tp11204
(Ntp11205
s(g1
g6
I5
g3
tp11206
(Ntp11207
s(g1
g6
I171
g3
tp11208
(Ntp11209
s(g1
g6
I192
g3
tp11210
(Ntp11211
s(g18
g25
I35
g13
tp11212
(Ntp11213
s(g1
g6
I61
g13
tp11214
(Ntp11215
s(g21
g25
I50
g13
tp11216
(Ntp11217
s(g21
g6
I200
g13
tp11218
(Ntp11219
s(g24
g6
I207
g13
tp11220
(Ntp11221
s(g1
g6
I215
g3
tp11222
(Ntp11223
s(g18
g2
I50
g13
tp11224
(Ntp11225
s(g24
g6
I154
g3
tp11226
(Ntp11227
s(g24
g6
I199
g3
tp11228
(Ntp11229
s(g12
g2
I78
g13
tp11230
(Ntp11231
s(g24
g6
I146
g13
tp11232
(Ntp11233
s(g21
g2
I17
g3
tp11234
(Ntp11235
s(g21
g2
I118
g13
tp11236
(Ntp11237
s(g9
g6
I179
g13
tp11238
(Ntp11239
s(g9
g6
I56
g13
tp11240
(Ntp11241
s(g21
g2
I56
g3
tp11242
(Ntp11243
s(g1
g6
I144
g13
tp11244
(Ntp11245
s(g1
g25
I73
g3
tp11246
(Ntp11247
s(g24
g6
I200
g3
tp11248
(Ntp11249
s(g18
g6
I45
g3
tp11250
(Ntp11251
s(g12
g2
I96
g3
tp11252
(Ntp11253
s(g21
g2
I35
g13
tp11254
(Ntp11255
s(g24
g6
I185
g13
tp11256
(Ntp11257
s(g24
g25
I128
g3
tp11258
(Ntp11259
s(g21
g25
I16
g13
tp11260
(Ntp11261
s(g1
g6
I189
g3
tp11262
(Ntp11263
s(g24
g2
I13
g3
tp11264
(Ntp11265
s(g9
g6
I33
g13
tp11266
(Ntp11267
s(g12
g2
I12
g3
tp11268
(Ntp11269
s(g21
g6
I131
g13
tp11270
(Ntp11271
s(g1
g6
I185
g13
tp11272
(Ntp11273
s(g1
g25
I119
g3
tp11274
(Ntp11275
s(g12
g2
I41
g13
tp11276
(Ntp11277
s(g24
g6
I140
g13
tp11278
(Ntp11279
s(g21
g2
I24
g13
tp11280
(Ntp11281
s(g24
g25
I35
g3
tp11282
(Ntp11283
s(g9
g6
I206
g13
tp11284
(Ntp11285
s(g12
g25
I36
g13
tp11286
(Ntp11287
s(g24
g6
I18
g3
tp11288
(Ntp11289
s(g21
g25
I99
g13
tp11290
(Ntp11291
s(g21
g2
I53
g13
tp11292
(Ntp11293
s(g9
g25
I64
g3
tp11294
(Ntp11295
s(g9
g25
I116
g13
tp11296
(Ntp11297
s(g12
g6
I209
g13
tp11298
(Ntp11299
s(g9
g6
I55
g13
tp11300
(Ntp11301
s(g9
g6
I62
g3
tp11302
(Ntp11303
s(g1
g25
I153
g13
tp11304
(Ntp11305
s(g12
g25
I102
g3
tp11306
(Ntp11307
s(g12
g2
I31
g13
tp11308
(Ntp11309
s(g18
g25
I126
g3
tp11310
(Ntp11311
s(g24
g25
I6
g3
tp11312
(Ntp11313
s(g9
g25
I80
g3
tp11314
(Ntp11315
s(g18
g2
I32
g13
tp11316
(Ntp11317
s(g21
g6
I47
g3
tp11318
(Ntp11319
s(g12
g6
I80
g3
tp11320
(Ntp11321
s(g21
g2
I100
g3
tp11322
(Ntp11323
s(g21
g25
I50
g3
tp11324
(Ntp11325
s(g21
g25
I4
g3
tp11326
(Ntp11327
s(g9
g25
I87
g13
tp11328
(Ntp11329
s(g18
g25
I63
g13
tp11330
(Ntp11331
s(g9
g6
I240
g3
tp11332
(Ntp11333
s(g21
g6
I173
g3
tp11334
(Ntp11335
s(g24
g6
I203
g13
tp11336
(Ntp11337
s(g24
g2
I95
g3
tp11338
(Ntp11339
s(g1
g2
I24
g3
tp11340
(Ntp11341
s(g1
g25
I128
g3
tp11342
(Ntp11343
s(g18
g25
I113
g3
tp11344
(Ntp11345
s(g18
g2
I54
g13
tp11346
(Ntp11347
s(g1
g25
I37
g3
tp11348
(Ntp11349
s(g24
g2
I8
g3
tp11350
(Ntp11351
s(g9
g2
I36
g3
tp11352
(Ntp11353
s(g24
g6
I158
g13
tp11354
(Ntp11355
s(g12
g25
I88
g3
tp11356
(Ntp11357
s(g9
g6
I219
g3
tp11358
(Ntp11359
s(g9
g25
I65
g13
tp11360
(Ntp11361
s(g9
g6
I60
g13
tp11362
(Ntp11363
s(g1
g2
I78
g3
tp11364
(Ntp11365
s(g12
g2
I46
g3
tp11366
(Ntp11367
s(g18
g25
I130
g13
tp11368
(Ntp11369
s(g1
g6
I156
g13
tp11370
(Ntp11371
s(g12
g6
I46
g3
tp11372
(Ntp11373
s(g24
g6
I165
g13
tp11374
(Ntp11375
s(g12
g25
I79
g3
tp11376
(Ntp11377
s(g24
g6
I99
g3
tp11378
(Ntp11379
s(g12
g6
I195
g13
tp11380
(Ntp11381
s(g9
g6
I153
g3
tp11382
(Ntp11383
s(g9
g6
I37
g13
tp11384
(Ntp11385
s(g21
g25
I6
g13
tp11386
(Ntp11387
s(g1
g6
I133
g13
tp11388
(Ntp11389
s(g12
g2
I45
g13
tp11390
(Ntp11391
s(g24
g6
I136
g13
tp11392
(Ntp11393
s(g24
g25
I74
g3
tp11394
(Ntp11395
s(g24
g6
I84
g3
tp11396
(Ntp11397
s(g21
g2
I28
g13
tp11398
(Ntp11399
s(g24
g2
I5
g3
tp11400
(Ntp11401
s(g9
g25
I100
g3
tp11402
(Ntp11403
s(g18
g6
I206
g13
tp11404
(Ntp11405
s(g18
g6
I112
g3
tp11406
(Ntp11407
s(g9
g6
I210
g13
tp11408
(Ntp11409
s(g12
g25
I32
g13
tp11410
(Ntp11411
s(g12
g25
I111
g13
tp11412
(Ntp11413
s(g1
g6
I126
g3
tp11414
(Ntp11415
s(g24
g6
I26
g13
tp11416
(Ntp11417
s(g9
g25
I112
g13
tp11418
(Ntp11419
s(g9
g6
I64
g13
tp11420
(Ntp11421
s(g18
g6
I134
g3
tp11422
(Ntp11423
s(g1
g6
I147
g13
tp11424
(Ntp11425
s(g12
g2
I19
g13
tp11426
(Ntp11427
s(g18
g6
I27
g3
tp11428
(Ntp11429
s(g18
g2
I36
g13
tp11430
(Ntp11431
s(g18
g6
I176
g13
tp11432
(Ntp11433
s(g18
g2
I107
g13
tp11434
(Ntp11435
s(g9
g6
I109
g13
tp11436
(Ntp11437
s(g1
g6
I36
g3
tp11438
(Ntp11439
s(g12
g25
I106
g3
tp11440
(Ntp11441
s(g1
g25
I47
g13
tp11442
(Ntp11443
s(g21
g25
I9
g13
tp11444
(Ntp11445
s(g21
g2
I36
g3
tp11446
(Ntp11447
s(g18
g6
I73
g3
tp11448
(Ntp11449
s(g1
g6
I43
g3
tp11450
(Ntp11451
s.